---
triple:          'arm64-apple-darwin'
binary-path:     a.out
relocations:
  - { offsetInCU: 0x52, offset: 0x52, size: 0x8, addend: 0x0, symName: __ZL5delta, symObjAddr: 0x11228, symBinAddr: 0x100013558, symSize: 0x0 }
  - { offsetInCU: 0x108EC, offset: 0x108EC, size: 0x8, addend: 0x0, symName: __ZNSt3__111__introsortINS_17_ClassicAlgPolicyERPFbNS_6vectorIiNS_9allocatorIiEEEES5_EPS5_Lb0EEEvT1_SA_T0_NS_15iterator_traitsISA_E15difference_typeEb, symObjAddr: 0x722C, symBinAddr: 0x10000919C, symSize: 0x690 }
  - { offsetInCU: 0x10A14, offset: 0x10A14, size: 0x8, addend: 0x0, symName: __ZNSt3__126__insertion_sort_unguardedB8ue170006INS_17_ClassicAlgPolicyERPFbNS_6vectorIiNS_9allocatorIiEEEES5_EPS5_EEvT1_SA_T0_, symObjAddr: 0x7D34, symBinAddr: 0x100009CA4, symSize: 0x258 }
  - { offsetInCU: 0x10AEE, offset: 0x10AEE, size: 0x8, addend: 0x0, symName: __ZNSt3__111__sift_downB8ue170006INS_17_ClassicAlgPolicyERPFbNS_6vectorIiNS_9allocatorIiEEEES5_EPS5_EEvT1_OT0_NS_15iterator_traitsISA_E15difference_typeESA_, symObjAddr: 0xABF0, symBinAddr: 0x10000CB60, symSize: 0x580 }
  - { offsetInCU: 0x10B9C, offset: 0x10B9C, size: 0x8, addend: 0x0, symName: __ZNSt3__117__floyd_sift_downB8ue170006INS_17_ClassicAlgPolicyERPFbNS_6vectorIiNS_9allocatorIiEEEES5_EPS5_EET1_SA_OT0_NS_15iterator_traitsISA_E15difference_typeE, symObjAddr: 0xB350, symBinAddr: 0x10000D2C0, symSize: 0x224 }
  - { offsetInCU: 0x10C34, offset: 0x10C34, size: 0x8, addend: 0x0, symName: __ZNSt3__131__partition_with_equals_on_leftB8ue170006INS_17_ClassicAlgPolicyEPNS_6vectorIiNS_9allocatorIiEEEERPFbS5_S5_EEET0_SA_SA_T1_, symObjAddr: 0x8400, symBinAddr: 0x10000A370, symSize: 0x5CC }
  - { offsetInCU: 0x10CF1, offset: 0x10CF1, size: 0x8, addend: 0x0, symName: __ZNSt3__118__bitset_partitionB8ue170006INS_17_ClassicAlgPolicyEPNS_6vectorIiNS_9allocatorIiEEEERPFbS5_S5_EEENS_4pairIT0_bEESB_SB_T1_, symObjAddr: 0x89CC, symBinAddr: 0x10000A93C, symSize: 0x608 }
  - { offsetInCU: 0x10DEF, offset: 0x10DEF, size: 0x8, addend: 0x0, symName: __ZNSt3__124__swap_bitmap_pos_withinB8ue170006INS_17_ClassicAlgPolicyEPNS_6vectorIiNS_9allocatorIiEEEEEEvRT0_S8_RyS9_, symObjAddr: 0xBF2C, symBinAddr: 0x10000DE9C, symSize: 0x1E8 }
  - { offsetInCU: 0x10EBC, offset: 0x10EBC, size: 0x8, addend: 0x0, symName: __ZNSt3__132__partition_with_equals_on_rightB8ue170006INS_17_ClassicAlgPolicyEPNS_6vectorIiNS_9allocatorIiEEEERPFbS5_S5_EEENS_4pairIT0_bEESB_SB_T1_, symObjAddr: 0x8FD4, symBinAddr: 0x10000AF44, symSize: 0x560 }
  - { offsetInCU: 0x10F8A, offset: 0x10F8A, size: 0x8, addend: 0x0, symName: __ZNSt3__127__insertion_sort_incompleteB8ue170006INS_17_ClassicAlgPolicyERPFbNS_6vectorIiNS_9allocatorIiEEEES5_EPS5_EEbT1_SA_T0_, symObjAddr: 0x9534, symBinAddr: 0x10000B4A4, symSize: 0x560 }
  - { offsetInCU: 0x11647, offset: 0x11647, size: 0x8, addend: 0x0, symName: __ZNSt3__124__put_character_sequenceB8ue170006IcNS_11char_traitsIcEEEERNS_13basic_ostreamIT_T0_EES7_PKS4_m, symObjAddr: 0xF650, symBinAddr: 0x1000115C0, symSize: 0x1EC }
  - { offsetInCU: 0x141F0, offset: 0x141F0, size: 0x8, addend: 0x0, symName: __ZNSt3__1rsB8ue170006IcNS_11char_traitsIcEEEERNS_13basic_istreamIT_T0_EES7_RS4_, symObjAddr: 0x2B8, symBinAddr: 0x100002228, symSize: 0x190 }
  - { offsetInCU: 0x14272, offset: 0x14272, size: 0x8, addend: 0x0, symName: __ZNSt3__17getlineB8ue170006IcNS_11char_traitsIcEENS_9allocatorIcEEEERNS_13basic_istreamIT_T0_EES9_RNS_12basic_stringIS6_S7_T1_EE, symObjAddr: 0x908, symBinAddr: 0x100002878, symSize: 0x5C }
  - { offsetInCU: 0x142CA, offset: 0x142CA, size: 0x8, addend: 0x0, symName: __ZNSt3__14sortB8ue170006INS_11__wrap_iterIPNS_6vectorIiNS_9allocatorIiEEEEEEPFbS5_S5_EEEvT_SA_T0_, symObjAddr: 0xB58, symBinAddr: 0x100002AC8, symSize: 0x48 }
  - { offsetInCU: 0x14324, offset: 0x14324, size: 0x8, addend: 0x0, symName: __ZNSt3__1lsB8ue170006INS_11char_traitsIcEEEERNS_13basic_ostreamIcT_EES6_PKc, symObjAddr: 0x14E4, symBinAddr: 0x100003454, symSize: 0x48 }
  - { offsetInCU: 0x1436A, offset: 0x1436A, size: 0x8, addend: 0x0, symName: __ZNSt3__1lsB8ue170006IcNS_11char_traitsIcEENS_9allocatorIcEEEERNS_13basic_ostreamIT_T0_EES9_RKNS_12basic_stringIS6_S7_T1_EE, symObjAddr: 0x17AC, symBinAddr: 0x10000371C, symSize: 0x4C }
  - { offsetInCU: 0x143C2, offset: 0x143C2, size: 0x8, addend: 0x0, symName: __ZNSt3__112__to_addressB8ue170006I5StateEEPT_S3_, symObjAddr: 0x2560, symBinAddr: 0x1000044D0, symSize: 0x14 }
  - { offsetInCU: 0x143F7, offset: 0x143F7, size: 0x8, addend: 0x0, symName: __ZNSt3__119__libcpp_deallocateB8ue170006EPvmm, symObjAddr: 0x2610, symBinAddr: 0x100004580, symSize: 0x60 }
  - { offsetInCU: 0x1445C, offset: 0x1445C, size: 0x8, addend: 0x0, symName: __ZNSt3__124__is_overaligned_for_newB8ue170006Em, symObjAddr: 0x2670, symBinAddr: 0x1000045E0, symSize: 0x20 }
  - { offsetInCU: 0x1448A, offset: 0x1448A, size: 0x8, addend: 0x0, symName: __ZNSt3__127__do_deallocate_handle_sizeB8ue170006IJSt11align_val_tEEEvPvmDpT_, symObjAddr: 0x2690, symBinAddr: 0x100004600, symSize: 0x30 }
  - { offsetInCU: 0x144DD, offset: 0x144DD, size: 0x8, addend: 0x0, symName: __ZNSt3__127__do_deallocate_handle_sizeB8ue170006IJEEEvPvmDpT_, symObjAddr: 0x26C0, symBinAddr: 0x100004630, symSize: 0x28 }
  - { offsetInCU: 0x1451B, offset: 0x1451B, size: 0x8, addend: 0x0, symName: __ZNSt3__124__libcpp_operator_deleteB8ue170006IJPvSt11align_val_tEEEvDpT_, symObjAddr: 0x26E8, symBinAddr: 0x100004658, symSize: 0x2C }
  - { offsetInCU: 0x14564, offset: 0x14564, size: 0x8, addend: 0x0, symName: __ZNSt3__124__libcpp_operator_deleteB8ue170006IJPvEEEvDpT_, symObjAddr: 0x2714, symBinAddr: 0x100004684, symSize: 0x24 }
  - { offsetInCU: 0x14599, offset: 0x14599, size: 0x8, addend: 0x0, symName: __ZNSt3__13maxB8ue170006ImEERKT_S3_S3_, symObjAddr: 0x2FE4, symBinAddr: 0x100004F54, symSize: 0x2C }
  - { offsetInCU: 0x145DC, offset: 0x145DC, size: 0x8, addend: 0x0, symName: __ZNSt3__13minB8ue170006ImEERKT_S3_S3_, symObjAddr: 0x3010, symBinAddr: 0x100004F80, symSize: 0x2C }
  - { offsetInCU: 0x14809, offset: 0x14809, size: 0x8, addend: 0x0, symName: __ZNSt3__13minB8ue170006ImNS_6__lessIvvEEEERKT_S5_S5_T0_, symObjAddr: 0x309C, symBinAddr: 0x10000500C, symSize: 0x54 }
  - { offsetInCU: 0x148A8, offset: 0x148A8, size: 0x8, addend: 0x0, symName: __ZNSt3__120__throw_length_errorB8ue170006EPKc, symObjAddr: 0x3178, symBinAddr: 0x1000050E8, symSize: 0x64 }
  - { offsetInCU: 0x148D2, offset: 0x148D2, size: 0x8, addend: 0x0, symName: __ZNSt3__13maxB8ue170006ImNS_6__lessIvvEEEERKT_S5_S5_T0_, symObjAddr: 0x325C, symBinAddr: 0x1000051CC, symSize: 0x54 }
  - { offsetInCU: 0x1492C, offset: 0x1492C, size: 0x8, addend: 0x0, symName: __ZNSt3__119__allocate_at_leastB8ue170006INS_9allocatorI5StateEEEENS_19__allocation_resultINS_16allocator_traitsIT_E7pointerEEERS6_m, symObjAddr: 0x33C0, symBinAddr: 0x100005330, symSize: 0x40 }
  - { offsetInCU: 0x1496F, offset: 0x1496F, size: 0x8, addend: 0x0, symName: __ZNSt3__117__libcpp_allocateB8ue170006Emm, symObjAddr: 0x3544, symBinAddr: 0x1000054B4, symSize: 0x60 }
  - { offsetInCU: 0x149C9, offset: 0x149C9, size: 0x8, addend: 0x0, symName: __ZNSt3__121__libcpp_operator_newB8ue170006IJmSt11align_val_tEEEPvDpT_, symObjAddr: 0x35A4, symBinAddr: 0x100005514, symSize: 0x2C }
  - { offsetInCU: 0x14A16, offset: 0x14A16, size: 0x8, addend: 0x0, symName: __ZNSt3__121__libcpp_operator_newB8ue170006IJmEEEPvDpT_, symObjAddr: 0x35D0, symBinAddr: 0x100005540, symSize: 0x24 }
  - { offsetInCU: 0x14A4F, offset: 0x14A4F, size: 0x8, addend: 0x0, symName: __ZNSt3__142__uninitialized_allocator_move_if_noexceptB8ue170006INS_9allocatorI5StateEENS_16reverse_iteratorIPS2_EES6_S2_vEET1_RT_T0_SA_S7_, symObjAddr: 0x3658, symBinAddr: 0x1000055C8, symSize: 0x78 }
  - { offsetInCU: 0x14ACC, offset: 0x14ACC, size: 0x8, addend: 0x0, symName: __ZNSt3__14swapB8ue170006IP5StateEENS_9enable_ifIXaasr21is_move_constructibleIT_EE5valuesr18is_move_assignableIS4_EE5valueEvE4typeERS4_S7_, symObjAddr: 0x371C, symBinAddr: 0x10000568C, symSize: 0x3C }
  - { offsetInCU: 0x14B1D, offset: 0x14B1D, size: 0x8, addend: 0x0, symName: __ZNSt3__14moveB8ue170006INS_16reverse_iteratorIP5StateEES4_EET0_T_S6_S5_, symObjAddr: 0x3804, symBinAddr: 0x100005774, symSize: 0x78 }
  - { offsetInCU: 0x14B77, offset: 0x14B77, size: 0x8, addend: 0x0, symName: __ZNSt3__16__moveB8ue170006INS_17_ClassicAlgPolicyENS_16reverse_iteratorIP5StateEES5_S5_EENS_4pairIT0_T2_EES7_T1_S8_, symObjAddr: 0x387C, symBinAddr: 0x1000057EC, symSize: 0x64 }
  - { offsetInCU: 0x14BE3, offset: 0x14BE3, size: 0x8, addend: 0x0, symName: __ZNSt3__123__dispatch_copy_or_moveB8ue170006INS_17_ClassicAlgPolicyENS_11__move_loopIS1_EENS_14__move_trivialENS_16reverse_iteratorIP5StateEES8_S8_EENS_4pairIT2_T4_EESA_T3_SB_, symObjAddr: 0x38E0, symBinAddr: 0x100005850, symSize: 0x64 }
  - { offsetInCU: 0x14C61, offset: 0x14C61, size: 0x8, addend: 0x0, symName: __ZNSt3__121__unwrap_and_dispatchB8ue170006INS_10__overloadINS_11__move_loopINS_17_ClassicAlgPolicyEEENS_14__move_trivialEEENS_16reverse_iteratorIP5StateEESA_SA_Li0EEENS_4pairIT0_T2_EESC_T1_SD_, symObjAddr: 0x3944, symBinAddr: 0x1000058B4, symSize: 0x12C }
  - { offsetInCU: 0x14CF1, offset: 0x14CF1, size: 0x8, addend: 0x0, symName: __ZNSt3__114__unwrap_rangeB8ue170006INS_16reverse_iteratorIP5StateEES4_EENS_4pairIT0_S6_EET_S8_, symObjAddr: 0x3A70, symBinAddr: 0x1000059E0, symSize: 0x84 }
  - { offsetInCU: 0x14E6C, offset: 0x14E6C, size: 0x8, addend: 0x0, symName: __ZNSt3__113__unwrap_iterB8ue170006INS_16reverse_iteratorIP5StateEENS_18__unwrap_iter_implIS4_Lb0EEELi0EEEDTclsrT0_8__unwrapclsr3stdE7declvalIT_EEEES8_, symObjAddr: 0x3B94, symBinAddr: 0x100005B04, symSize: 0x44 }
  - { offsetInCU: 0x14EB0, offset: 0x14EB0, size: 0x8, addend: 0x0, symName: __ZNSt3__19make_pairB8ue170006INS_16reverse_iteratorIP5StateEES4_EENS_4pairINS_18__unwrap_ref_decayIT_E4typeENS6_IT0_E4typeEEEOS7_OSA_, symObjAddr: 0x3BD8, symBinAddr: 0x100005B48, symSize: 0x38 }
  - { offsetInCU: 0x14EFF, offset: 0x14EFF, size: 0x8, addend: 0x0, symName: __ZNSt3__114__rewrap_rangeB8ue170006INS_16reverse_iteratorIP5StateEES4_EET_S5_T0_, symObjAddr: 0x3C10, symBinAddr: 0x100005B80, symSize: 0x5C }
  - { offsetInCU: 0x14F4B, offset: 0x14F4B, size: 0x8, addend: 0x0, symName: __ZNSt3__113__rewrap_iterB8ue170006INS_16reverse_iteratorIP5StateEES4_NS_18__unwrap_iter_implIS4_Lb0EEEEET_S7_T0_, symObjAddr: 0x3C6C, symBinAddr: 0x100005BDC, symSize: 0x74 }
  - { offsetInCU: 0x14FA0, offset: 0x14FA0, size: 0x8, addend: 0x0, symName: __ZNSt3__1neB8ue170006IP5StateS2_EEbRKNS_16reverse_iteratorIT_EERKNS3_IT0_EE, symObjAddr: 0x3CE0, symBinAddr: 0x100005C50, symSize: 0x48 }
  - { offsetInCU: 0x1516C, offset: 0x1516C, size: 0x8, addend: 0x0, symName: __ZNSt3__112__to_addressB8ue170006IKcEEPT_S3_, symObjAddr: 0x4100, symBinAddr: 0x100006070, symSize: 0x14 }
  - { offsetInCU: 0x151D4, offset: 0x151D4, size: 0x8, addend: 0x0, symName: __ZNSt3__112__to_addressB8ue170006INS_6vectorI5StateNS_9allocatorIS2_EEEEEEPT_S7_, symObjAddr: 0x4704, symBinAddr: 0x100006674, symSize: 0x14 }
  - { offsetInCU: 0x15209, offset: 0x15209, size: 0x8, addend: 0x0, symName: __ZNSt3__17getlineB8ue170006IcNS_11char_traitsIcEENS_9allocatorIcEEEERNS_13basic_istreamIT_T0_EES9_RNS_12basic_stringIS6_S7_T1_EES6_, symObjAddr: 0x4864, symBinAddr: 0x1000067D4, symSize: 0x234 }
  - { offsetInCU: 0x154E6, offset: 0x154E6, size: 0x8, addend: 0x0, symName: __ZNSt3__19use_facetB8ue170006INS_5ctypeIcEEEERKT_RKNS_6localeE, symObjAddr: 0x4EA4, symBinAddr: 0x100006E14, symSize: 0x2C }
  - { offsetInCU: 0x159B3, offset: 0x159B3, size: 0x8, addend: 0x0, symName: __ZNSt3__122__make_exception_guardB8ue170006INS_6vectorI5StateNS_9allocatorIS2_EEE16__destroy_vectorEEENS_28__exception_guard_exceptionsIT_EES8_, symObjAddr: 0x5410, symBinAddr: 0x100007380, symSize: 0x40 }
  - { offsetInCU: 0x159E8, offset: 0x159E8, size: 0x8, addend: 0x0, symName: __ZNSt3__130__uninitialized_allocator_copyB8ue170006INS_9allocatorI5StateEEPS2_S4_S4_EET2_RT_T0_T1_S5_, symObjAddr: 0x5628, symBinAddr: 0x100007598, symSize: 0x80 }
  - { offsetInCU: 0x15A85, offset: 0x15A85, size: 0x8, addend: 0x0, symName: __ZNSt3__114__unwrap_rangeB8ue170006IP5StateS2_EENS_4pairIT0_S4_EET_S6_, symObjAddr: 0x56A8, symBinAddr: 0x100007618, symSize: 0x60 }
  - { offsetInCU: 0x15AD1, offset: 0x15AD1, size: 0x8, addend: 0x0, symName: __ZNSt3__135__uninitialized_allocator_copy_implB8ue170006INS_9allocatorI5StateEES2_S2_S2_LPv0EEEPT2_RT_PT0_SA_S6_, symObjAddr: 0x5708, symBinAddr: 0x100007678, symSize: 0x38 }
  - { offsetInCU: 0x15B52, offset: 0x15B52, size: 0x8, addend: 0x0, symName: __ZNSt3__113__unwrap_iterB8ue170006IP5StateNS_18__unwrap_iter_implIS2_Lb1EEELi0EEEDTclsrT0_8__unwrapclsr3stdE7declvalIT_EEEES6_, symObjAddr: 0x5740, symBinAddr: 0x1000076B0, symSize: 0x24 }
  - { offsetInCU: 0x15B96, offset: 0x15B96, size: 0x8, addend: 0x0, symName: __ZNSt3__113__rewrap_iterB8ue170006IP5StateS2_NS_18__unwrap_iter_implIS2_Lb1EEEEET_S5_T0_, symObjAddr: 0x5764, symBinAddr: 0x1000076D4, symSize: 0x3C }
  - { offsetInCU: 0x15BEB, offset: 0x15BEB, size: 0x8, addend: 0x0, symName: __ZNSt3__19make_pairB8ue170006IP5StateS2_EENS_4pairINS_18__unwrap_ref_decayIT_E4typeENS4_IT0_E4typeEEEOS5_OS8_, symObjAddr: 0x57A0, symBinAddr: 0x100007710, symSize: 0x38 }
  - { offsetInCU: 0x15D3D, offset: 0x15D3D, size: 0x8, addend: 0x0, symName: __ZNSt3__14copyB8ue170006IP5StateS2_EET0_T_S4_S3_, symObjAddr: 0x5848, symBinAddr: 0x1000077B8, symSize: 0x40 }
  - { offsetInCU: 0x15D97, offset: 0x15D97, size: 0x8, addend: 0x0, symName: __ZNSt3__16__copyB8ue170006INS_17_ClassicAlgPolicyEP5StateS3_S3_EENS_4pairIT0_T2_EES5_T1_S6_, symObjAddr: 0x5888, symBinAddr: 0x1000077F8, symSize: 0x44 }
  - { offsetInCU: 0x15E03, offset: 0x15E03, size: 0x8, addend: 0x0, symName: __ZNSt3__123__dispatch_copy_or_moveB8ue170006INS_17_ClassicAlgPolicyENS_11__copy_loopIS1_EENS_14__copy_trivialEP5StateS6_S6_EENS_4pairIT2_T4_EES8_T3_S9_, symObjAddr: 0x58CC, symBinAddr: 0x10000783C, symSize: 0x44 }
  - { offsetInCU: 0x15E81, offset: 0x15E81, size: 0x8, addend: 0x0, symName: __ZNSt3__121__unwrap_and_dispatchB8ue170006INS_10__overloadINS_11__copy_loopINS_17_ClassicAlgPolicyEEENS_14__copy_trivialEEEP5StateS8_S8_Li0EEENS_4pairIT0_T2_EESA_T1_SB_, symObjAddr: 0x5910, symBinAddr: 0x100007880, symSize: 0xB4 }
  - { offsetInCU: 0x15FCD, offset: 0x15FCD, size: 0x8, addend: 0x0, symName: __ZNSt3__114__rewrap_rangeB8ue170006IP5StateS2_EET_S3_T0_, symObjAddr: 0x5A0C, symBinAddr: 0x10000797C, symSize: 0x2C }
  - { offsetInCU: 0x16019, offset: 0x16019, size: 0x8, addend: 0x0, symName: __ZNSt3__119__copy_trivial_implB8ue170006I5StateS1_EENS_4pairIPT_PT0_EES4_S4_S6_, symObjAddr: 0x5A38, symBinAddr: 0x1000079A8, symSize: 0x80 }
  - { offsetInCU: 0x16081, offset: 0x16081, size: 0x8, addend: 0x0, symName: __ZNSt3__119__constexpr_memmoveB8ue170006I5StateS1_Li0EEEPT_S3_PT0_NS_15__element_countE, symObjAddr: 0x5AB8, symBinAddr: 0x100007A28, symSize: 0x64 }
  - { offsetInCU: 0x160EF, offset: 0x160EF, size: 0x8, addend: 0x0, symName: __ZNSt3__19make_pairB8ue170006IRP5StateS2_EENS_4pairINS_18__unwrap_ref_decayIT_E4typeENS5_IT0_E4typeEEEOS6_OS9_, symObjAddr: 0x5B1C, symBinAddr: 0x100007A8C, symSize: 0x38 }
  - { offsetInCU: 0x16191, offset: 0x16191, size: 0x8, addend: 0x0, symName: __ZNSt3__119__allocate_at_leastB8ue170006INS_9allocatorINS_6vectorI5StateNS1_IS3_EEEEEEEENS_19__allocation_resultINS_16allocator_traitsIT_E7pointerEEERS9_m, symObjAddr: 0x6108, symBinAddr: 0x100008078, symSize: 0x40 }
  - { offsetInCU: 0x161D4, offset: 0x161D4, size: 0x8, addend: 0x0, symName: __ZNSt3__142__uninitialized_allocator_move_if_noexceptB8ue170006INS_9allocatorINS_6vectorI5StateNS1_IS3_EEEEEENS_16reverse_iteratorIPS5_EES9_S9_EET2_RT_T0_T1_SA_, symObjAddr: 0x62C0, symBinAddr: 0x100008230, symSize: 0x12C }
  - { offsetInCU: 0x16274, offset: 0x16274, size: 0x8, addend: 0x0, symName: __ZNSt3__14swapB8ue170006IPNS_6vectorI5StateNS_9allocatorIS2_EEEEEENS_9enable_ifIXaasr21is_move_constructibleIT_EE5valuesr18is_move_assignableIS8_EE5valueEvE4typeERS8_SB_, symObjAddr: 0x6438, symBinAddr: 0x1000083A8, symSize: 0x3C }
  - { offsetInCU: 0x162C5, offset: 0x162C5, size: 0x8, addend: 0x0, symName: __ZNSt3__122__make_exception_guardB8ue170006INS_29_AllocatorDestroyRangeReverseINS_9allocatorINS_6vectorI5StateNS2_IS4_EEEEEENS_16reverse_iteratorIPS6_EEEEEENS_28__exception_guard_exceptionsIT_EESD_, symObjAddr: 0x653C, symBinAddr: 0x1000084AC, symSize: 0x4C }
  - { offsetInCU: 0x162FB, offset: 0x162FB, size: 0x8, addend: 0x0, symName: __ZNSt3__1neB8ue170006IPNS_6vectorI5StateNS_9allocatorIS2_EEEES6_EEbRKNS_16reverse_iteratorIT_EERKNS7_IT0_EE, symObjAddr: 0x65CC, symBinAddr: 0x10000853C, symSize: 0x48 }
  - { offsetInCU: 0x16347, offset: 0x16347, size: 0x8, addend: 0x0, symName: __ZNSt3__112__to_addressB8ue170006INS_16reverse_iteratorIPNS_6vectorI5StateNS_9allocatorIS3_EEEEEEvEEu7__decayIDTclsr19__to_address_helperIT_EE6__callclsr3stdE7declvalIRKS9_EEEEESB_, symObjAddr: 0x6648, symBinAddr: 0x1000085B8, symSize: 0x24 }
  - { offsetInCU: 0x163A6, offset: 0x163A6, size: 0x8, addend: 0x0, symName: __ZNSt3__119__allocator_destroyB8ue170006INS_9allocatorINS_6vectorI5StateNS1_IS3_EEEEEENS_16reverse_iteratorINS7_IPS5_EEEESA_EEvRT_T0_T1_, symObjAddr: 0x6A20, symBinAddr: 0x100008990, symSize: 0x70 }
  - { offsetInCU: 0x1640B, offset: 0x1640B, size: 0x8, addend: 0x0, symName: __ZNSt3__1neB8ue170006INS_16reverse_iteratorIPNS_6vectorI5StateNS_9allocatorIS3_EEEEEES8_EEbRKNS1_IT_EERKNS1_IT0_EE, symObjAddr: 0x6ACC, symBinAddr: 0x100008A3C, symSize: 0x60 }
  - { offsetInCU: 0x16457, offset: 0x16457, size: 0x8, addend: 0x0, symName: __ZNSt3__112__to_addressB8ue170006INS_16reverse_iteratorINS1_IPNS_6vectorI5StateNS_9allocatorIS3_EEEEEEEEvEEu7__decayIDTclsr19__to_address_helperIT_EE6__callclsr3stdE7declvalIRKSA_EEEEESC_, symObjAddr: 0x6B2C, symBinAddr: 0x100008A9C, symSize: 0x24 }
  - { offsetInCU: 0x164B6, offset: 0x164B6, size: 0x8, addend: 0x0, symName: __ZNSt3__111__sort_implB8ue170006INS_17_ClassicAlgPolicyENS_11__wrap_iterIPNS_6vectorIiNS_9allocatorIiEEEEEEPFbS6_S6_EEEvT0_SB_RT1_, symObjAddr: 0x7074, symBinAddr: 0x100008FE4, symSize: 0xA8 }
  - { offsetInCU: 0x16519, offset: 0x16519, size: 0x8, addend: 0x0, symName: __ZNSt3__123__debug_randomize_rangeB8ue170006INS_17_ClassicAlgPolicyENS_11__wrap_iterIPNS_6vectorIiNS_9allocatorIiEEEEEES8_EEvT0_T1_, symObjAddr: 0x711C, symBinAddr: 0x10000908C, symSize: 0x14 }
  - { offsetInCU: 0x1656A, offset: 0x1656A, size: 0x8, addend: 0x0, symName: __ZNSt3__115__sort_dispatchB8ue170006INS_17_ClassicAlgPolicyEPNS_6vectorIiNS_9allocatorIiEEEEPFbS5_S5_EEEvT0_S9_RT1_, symObjAddr: 0x7130, symBinAddr: 0x1000090A0, symSize: 0x64 }
  - { offsetInCU: 0x165E8, offset: 0x165E8, size: 0x8, addend: 0x0, symName: __ZNSt3__113__unwrap_iterB8ue170006INS_11__wrap_iterIPNS_6vectorIiNS_9allocatorIiEEEEEENS_18__unwrap_iter_implIS7_Lb1EEELi0EEEDTclsrT0_8__unwrapclsr3stdE7declvalIT_EEEESB_, symObjAddr: 0x7194, symBinAddr: 0x100009104, symSize: 0x2C }
  - { offsetInCU: 0x1662C, offset: 0x1662C, size: 0x8, addend: 0x0, symName: __ZNSt3__135__check_strict_weak_ordering_sortedB8ue170006IPNS_6vectorIiNS_9allocatorIiEEEEPFbS4_S4_EEEvT_S8_RT0_, symObjAddr: 0x71C0, symBinAddr: 0x100009130, symSize: 0x18 }
  - { offsetInCU: 0x16682, offset: 0x16682, size: 0x8, addend: 0x0, symName: __ZNSt3__17__log2iB8ue170006IlEET_S1_, symObjAddr: 0x71D8, symBinAddr: 0x100009148, symSize: 0x54 }
  - { offsetInCU: 0x166B9, offset: 0x166B9, size: 0x8, addend: 0x0, symName: __ZNSt3__112__libcpp_clzB8ue170006Em, symObjAddr: 0x78D4, symBinAddr: 0x100009844, symSize: 0x1C }
  - { offsetInCU: 0x166E5, offset: 0x166E5, size: 0x8, addend: 0x0, symName: __ZNSt3__124__sort3_maybe_branchlessB8ue170006INS_17_ClassicAlgPolicyERPFbNS_6vectorIiNS_9allocatorIiEEEES5_EPS5_EENS_9enable_ifIXntsr21__use_branchless_sortIT0_T1_EE5valueEvE4typeESC_SC_SC_SB_, symObjAddr: 0x7924, symBinAddr: 0x100009894, symSize: 0x3C }
  - { offsetInCU: 0x16756, offset: 0x16756, size: 0x8, addend: 0x0, symName: __ZNSt3__124__sort4_maybe_branchlessB8ue170006INS_17_ClassicAlgPolicyERPFbNS_6vectorIiNS_9allocatorIiEEEES5_EPS5_EENS_9enable_ifIXntsr21__use_branchless_sortIT0_T1_EE5valueEvE4typeESC_SC_SC_SC_SB_, symObjAddr: 0x7960, symBinAddr: 0x1000098D0, symSize: 0x44 }
  - { offsetInCU: 0x167D5, offset: 0x167D5, size: 0x8, addend: 0x0, symName: __ZNSt3__124__sort5_maybe_branchlessB8ue170006INS_17_ClassicAlgPolicyERPFbNS_6vectorIiNS_9allocatorIiEEEES5_EPS5_EENS_9enable_ifIXntsr21__use_branchless_sortIT0_T1_EE5valueEvE4typeESC_SC_SC_SC_SC_SB_, symObjAddr: 0x79A4, symBinAddr: 0x100009914, symSize: 0x4C }
  - { offsetInCU: 0x16862, offset: 0x16862, size: 0x8, addend: 0x0, symName: __ZNSt3__116__insertion_sortB8ue170006INS_17_ClassicAlgPolicyERPFbNS_6vectorIiNS_9allocatorIiEEEES5_EPS5_EEvT1_SA_T0_, symObjAddr: 0x79F0, symBinAddr: 0x100009960, symSize: 0x344 }
  - { offsetInCU: 0x16917, offset: 0x16917, size: 0x8, addend: 0x0, symName: __ZNSt3__114__partial_sortB8ue170006INS_17_ClassicAlgPolicyERPFbNS_6vectorIiNS_9allocatorIiEEEES5_EPS5_S9_EET1_SA_SA_T2_RT0_, symObjAddr: 0x7F8C, symBinAddr: 0x100009EFC, symSize: 0x94 }
  - { offsetInCU: 0x1699F, offset: 0x1699F, size: 0x8, addend: 0x0, symName: __ZNSt3__17__sort3B8ue170006INS_17_ClassicAlgPolicyERPFbNS_6vectorIiNS_9allocatorIiEEEES5_EPS5_EEjT1_SA_SA_T0_, symObjAddr: 0x8020, symBinAddr: 0x100009F90, symSize: 0x3AC }
  - { offsetInCU: 0x16A1E, offset: 0x16A1E, size: 0x8, addend: 0x0, symName: __ZNSt3__19iter_swapB8ue170006IPNS_6vectorIiNS_9allocatorIiEEEES5_EEvT_T0_, symObjAddr: 0x9AAC, symBinAddr: 0x10000BA1C, symSize: 0x2C }
  - { offsetInCU: 0x16A66, offset: 0x16A66, size: 0x8, addend: 0x0, symName: __ZNSt3__14swapB8ue170006IiNS_9allocatorIiEEEEvRNS_6vectorIT_T0_EES7_, symObjAddr: 0x9AD8, symBinAddr: 0x10000BA48, symSize: 0x2C }
  - { offsetInCU: 0x16AB1, offset: 0x16AB1, size: 0x8, addend: 0x0, symName: __ZNSt3__14swapB8ue170006IPiEENS_9enable_ifIXaasr21is_move_constructibleIT_EE5valuesr18is_move_assignableIS3_EE5valueEvE4typeERS3_S6_, symObjAddr: 0x9B88, symBinAddr: 0x10000BAF8, symSize: 0x3C }
  - { offsetInCU: 0x16B02, offset: 0x16B02, size: 0x8, addend: 0x0, symName: __ZNSt3__116__swap_allocatorB8ue170006INS_9allocatorIiEEEEvRT_S4_NS_17integral_constantIbLb0EEE, symObjAddr: 0x9BEC, symBinAddr: 0x10000BB5C, symSize: 0x14 }
  - { offsetInCU: 0x16B43, offset: 0x16B43, size: 0x8, addend: 0x0, symName: __ZNSt3__17__sort4B8ue170006INS_17_ClassicAlgPolicyERPFbNS_6vectorIiNS_9allocatorIiEEEES5_EPS5_EEvT1_SA_SA_SA_T0_, symObjAddr: 0x9C98, symBinAddr: 0x10000BC08, symSize: 0x230 }
  - { offsetInCU: 0x16BBE, offset: 0x16BBE, size: 0x8, addend: 0x0, symName: __ZNSt3__17__sort5B8ue170006INS_17_ClassicAlgPolicyERPFbNS_6vectorIiNS_9allocatorIiEEEES5_EPS5_EEvT1_SA_SA_SA_SA_T0_, symObjAddr: 0x9EC8, symBinAddr: 0x10000BE38, symSize: 0x2D8 }
  - { offsetInCU: 0x16C6B, offset: 0x16C6B, size: 0x8, addend: 0x0, symName: __ZNSt3__112__to_addressB8ue170006IiEEPT_S2_, symObjAddr: 0xA82C, symBinAddr: 0x10000C79C, symSize: 0x14 }
  - { offsetInCU: 0x16CA0, offset: 0x16CA0, size: 0x8, addend: 0x0, symName: __ZNSt3__123__debug_randomize_rangeB8ue170006INS_17_ClassicAlgPolicyEPNS_6vectorIiNS_9allocatorIiEEEES6_EEvT0_T1_, symObjAddr: 0xA98C, symBinAddr: 0x10000C8FC, symSize: 0x14 }
  - { offsetInCU: 0x16CF1, offset: 0x16CF1, size: 0x8, addend: 0x0, symName: __ZNSt3__119__partial_sort_implB8ue170006INS_17_ClassicAlgPolicyERPFbNS_6vectorIiNS_9allocatorIiEEEES5_EPS5_S9_EET1_SA_SA_T2_OT0_, symObjAddr: 0xA9A0, symBinAddr: 0x10000C910, symSize: 0x190 }
  - { offsetInCU: 0x16D87, offset: 0x16D87, size: 0x8, addend: 0x0, symName: __ZNSt3__111__make_heapB8ue170006INS_17_ClassicAlgPolicyERPFbNS_6vectorIiNS_9allocatorIiEEEES5_EPS5_EEvT1_SA_OT0_, symObjAddr: 0xAB30, symBinAddr: 0x10000CAA0, symSize: 0xC0 }
  - { offsetInCU: 0x16E29, offset: 0x16E29, size: 0x8, addend: 0x0, symName: __ZNSt3__111__sort_heapB8ue170006INS_17_ClassicAlgPolicyERPFbNS_6vectorIiNS_9allocatorIiEEEES5_EPS5_EEvT1_SA_OT0_, symObjAddr: 0xB170, symBinAddr: 0x10000D0E0, symSize: 0xA8 }
  - { offsetInCU: 0x16ECB, offset: 0x16ECB, size: 0x8, addend: 0x0, symName: __ZNSt3__110__pop_heapB8ue170006INS_17_ClassicAlgPolicyEPFbNS_6vectorIiNS_9allocatorIiEEEES5_EPS5_EEvT1_S9_RT0_NS_15iterator_traitsIS9_E15difference_typeE, symObjAddr: 0xB218, symBinAddr: 0x10000D188, symSize: 0x138 }
  - { offsetInCU: 0x16F73, offset: 0x16F73, size: 0x8, addend: 0x0, symName: __ZNSt3__19__sift_upB8ue170006INS_17_ClassicAlgPolicyERPFbNS_6vectorIiNS_9allocatorIiEEEES5_EPS5_EEvT1_SA_OT0_NS_15iterator_traitsISA_E15difference_typeE, symObjAddr: 0xB574, symBinAddr: 0x10000D4E4, symSize: 0x25C }
  - { offsetInCU: 0x17014, offset: 0x17014, size: 0x8, addend: 0x0, symName: __ZNSt3__122__populate_left_bitsetB8ue170006IRPFbNS_6vectorIiNS_9allocatorIiEEEES4_EPS4_S4_EEvT0_T_RT1_Ry, symObjAddr: 0xB7D0, symBinAddr: 0x10000D740, symSize: 0x138 }
  - { offsetInCU: 0x170BF, offset: 0x170BF, size: 0x8, addend: 0x0, symName: __ZNSt3__123__populate_right_bitsetB8ue170006IRPFbNS_6vectorIiNS_9allocatorIiEEEES4_EPS4_S4_EEvT0_T_RT1_Ry, symObjAddr: 0xB908, symBinAddr: 0x10000D878, symSize: 0x120 }
  - { offsetInCU: 0x1716A, offset: 0x1716A, size: 0x8, addend: 0x0, symName: __ZNSt3__117__swap_bitmap_posB8ue170006INS_17_ClassicAlgPolicyEPNS_6vectorIiNS_9allocatorIiEEEEEEvT0_S7_RyS8_, symObjAddr: 0xBA28, symBinAddr: 0x10000D998, symSize: 0x104 }
  - { offsetInCU: 0x1720B, offset: 0x1720B, size: 0x8, addend: 0x0, symName: __ZNSt3__133__bitset_partition_partial_blocksB8ue170006INS_17_ClassicAlgPolicyERPFbNS_6vectorIiNS_9allocatorIiEEEES5_EPS5_S5_EEvRT1_SB_T0_RT2_RySF_, symObjAddr: 0xBB2C, symBinAddr: 0x10000DA9C, symSize: 0x400 }
  - { offsetInCU: 0x17374, offset: 0x17374, size: 0x8, addend: 0x0, symName: __ZNSt3__19make_pairB8ue170006IRPNS_6vectorIiNS_9allocatorIiEEEERbEENS_4pairINS_18__unwrap_ref_decayIT_E4typeENS9_IT0_E4typeEEEOSA_OSD_, symObjAddr: 0xC114, symBinAddr: 0x10000E084, symSize: 0x38 }
  - { offsetInCU: 0x173C3, offset: 0x173C3, size: 0x8, addend: 0x0, symName: __ZNSt3__112__libcpp_ctzB8ue170006Ey, symObjAddr: 0xC14C, symBinAddr: 0x10000E0BC, symSize: 0x20 }
  - { offsetInCU: 0x173EF, offset: 0x173EF, size: 0x8, addend: 0x0, symName: __ZNSt3__113__libcpp_blsrB8ue170006Ey, symObjAddr: 0xC16C, symBinAddr: 0x10000E0DC, symSize: 0x2C }
  - { offsetInCU: 0x1741B, offset: 0x1741B, size: 0x8, addend: 0x0, symName: __ZNSt3__112__libcpp_clzB8ue170006Ey, symObjAddr: 0xC1CC, symBinAddr: 0x10000E13C, symSize: 0x1C }
  - { offsetInCU: 0x1756E, offset: 0x1756E, size: 0x8, addend: 0x0, symName: __ZNSt3__112__to_addressB8ue170006INS_11__wrap_iterIPNS_6vectorIiNS_9allocatorIiEEEEEEvEEu7__decayIDTclsr19__to_address_helperIT_EE6__callclsr3stdE7declvalIRKS8_EEEEESA_, symObjAddr: 0xC284, symBinAddr: 0x10000E1F4, symSize: 0x24 }
  - { offsetInCU: 0x17649, offset: 0x17649, size: 0x8, addend: 0x0, symName: __ZNSt3__112__to_addressB8ue170006INS_6vectorIiNS_9allocatorIiEEEEEEPT_S6_, symObjAddr: 0xC304, symBinAddr: 0x10000E274, symSize: 0x14 }
  - { offsetInCU: 0x1767E, offset: 0x1767E, size: 0x8, addend: 0x0, symName: __ZNSt3__122__make_exception_guardB8ue170006INS_6vectorIiNS_9allocatorIiEEE16__destroy_vectorEEENS_28__exception_guard_exceptionsIT_EES7_, symObjAddr: 0xC48C, symBinAddr: 0x10000E3FC, symSize: 0x40 }
  - { offsetInCU: 0x176B3, offset: 0x176B3, size: 0x8, addend: 0x0, symName: __ZNSt3__119__allocate_at_leastB8ue170006INS_9allocatorIiEEEENS_19__allocation_resultINS_16allocator_traitsIT_E7pointerEEERS5_m, symObjAddr: 0xC870, symBinAddr: 0x10000E7E0, symSize: 0x40 }
  - { offsetInCU: 0x176F6, offset: 0x176F6, size: 0x8, addend: 0x0, symName: __ZNSt3__130__uninitialized_allocator_copyB8ue170006INS_9allocatorIiEEPKiS4_PiEET2_RT_T0_T1_S6_, symObjAddr: 0xCA88, symBinAddr: 0x10000E9F8, symSize: 0x80 }
  - { offsetInCU: 0x17793, offset: 0x17793, size: 0x8, addend: 0x0, symName: __ZNSt3__114__unwrap_rangeB8ue170006IPKiS2_EENS_4pairIT0_S4_EET_S6_, symObjAddr: 0xCB78, symBinAddr: 0x10000EAE8, symSize: 0x60 }
  - { offsetInCU: 0x177DF, offset: 0x177DF, size: 0x8, addend: 0x0, symName: __ZNSt3__135__uninitialized_allocator_copy_implB8ue170006INS_9allocatorIiEEKiiiLPv0EEEPT2_RT_PT0_SA_S6_, symObjAddr: 0xCBD8, symBinAddr: 0x10000EB48, symSize: 0x38 }
  - { offsetInCU: 0x17860, offset: 0x17860, size: 0x8, addend: 0x0, symName: __ZNSt3__113__unwrap_iterB8ue170006IPiNS_18__unwrap_iter_implIS1_Lb1EEELi0EEEDTclsrT0_8__unwrapclsr3stdE7declvalIT_EEEES5_, symObjAddr: 0xCC10, symBinAddr: 0x10000EB80, symSize: 0x24 }
  - { offsetInCU: 0x178A4, offset: 0x178A4, size: 0x8, addend: 0x0, symName: __ZNSt3__113__rewrap_iterB8ue170006IPiS1_NS_18__unwrap_iter_implIS1_Lb1EEEEET_S4_T0_, symObjAddr: 0xCC34, symBinAddr: 0x10000EBA4, symSize: 0x3C }
  - { offsetInCU: 0x178F9, offset: 0x178F9, size: 0x8, addend: 0x0, symName: __ZNSt3__19make_pairB8ue170006IPKiS2_EENS_4pairINS_18__unwrap_ref_decayIT_E4typeENS4_IT0_E4typeEEEOS5_OS8_, symObjAddr: 0xCC70, symBinAddr: 0x10000EBE0, symSize: 0x38 }
  - { offsetInCU: 0x17948, offset: 0x17948, size: 0x8, addend: 0x0, symName: __ZNSt3__113__unwrap_iterB8ue170006IPKiNS_18__unwrap_iter_implIS2_Lb1EEELi0EEEDTclsrT0_8__unwrapclsr3stdE7declvalIT_EEEES6_, symObjAddr: 0xCCA8, symBinAddr: 0x10000EC18, symSize: 0x24 }
  - { offsetInCU: 0x17AB3, offset: 0x17AB3, size: 0x8, addend: 0x0, symName: __ZNSt3__112__to_addressB8ue170006IKiEEPT_S3_, symObjAddr: 0xCD60, symBinAddr: 0x10000ECD0, symSize: 0x14 }
  - { offsetInCU: 0x17AE8, offset: 0x17AE8, size: 0x8, addend: 0x0, symName: __ZNSt3__14copyB8ue170006IPKiPiEET0_T_S5_S4_, symObjAddr: 0xCD74, symBinAddr: 0x10000ECE4, symSize: 0x40 }
  - { offsetInCU: 0x17B42, offset: 0x17B42, size: 0x8, addend: 0x0, symName: __ZNSt3__16__copyB8ue170006INS_17_ClassicAlgPolicyEPKiS3_PiEENS_4pairIT0_T2_EES6_T1_S7_, symObjAddr: 0xCDB4, symBinAddr: 0x10000ED24, symSize: 0x44 }
  - { offsetInCU: 0x17BAE, offset: 0x17BAE, size: 0x8, addend: 0x0, symName: __ZNSt3__123__dispatch_copy_or_moveB8ue170006INS_17_ClassicAlgPolicyENS_11__copy_loopIS1_EENS_14__copy_trivialEPKiS6_PiEENS_4pairIT2_T4_EES9_T3_SA_, symObjAddr: 0xCDF8, symBinAddr: 0x10000ED68, symSize: 0x44 }
  - { offsetInCU: 0x17C2C, offset: 0x17C2C, size: 0x8, addend: 0x0, symName: __ZNSt3__121__unwrap_and_dispatchB8ue170006INS_10__overloadINS_11__copy_loopINS_17_ClassicAlgPolicyEEENS_14__copy_trivialEEEPKiS8_PiLi0EEENS_4pairIT0_T2_EESB_T1_SC_, symObjAddr: 0xCE3C, symBinAddr: 0x10000EDAC, symSize: 0xB4 }
  - { offsetInCU: 0x17DBD, offset: 0x17DBD, size: 0x8, addend: 0x0, symName: __ZNSt3__19make_pairB8ue170006IPKiPiEENS_4pairINS_18__unwrap_ref_decayIT_E4typeENS5_IT0_E4typeEEEOS6_OS9_, symObjAddr: 0xCF38, symBinAddr: 0x10000EEA8, symSize: 0x38 }
  - { offsetInCU: 0x17E0C, offset: 0x17E0C, size: 0x8, addend: 0x0, symName: __ZNSt3__114__rewrap_rangeB8ue170006IPKiS2_EET_S3_T0_, symObjAddr: 0xCF70, symBinAddr: 0x10000EEE0, symSize: 0x2C }
  - { offsetInCU: 0x17E58, offset: 0x17E58, size: 0x8, addend: 0x0, symName: __ZNSt3__119__copy_trivial_implB8ue170006IKiiEENS_4pairIPT_PT0_EES4_S4_S6_, symObjAddr: 0xCF9C, symBinAddr: 0x10000EF0C, symSize: 0x80 }
  - { offsetInCU: 0x17EC0, offset: 0x17EC0, size: 0x8, addend: 0x0, symName: __ZNSt3__119__constexpr_memmoveB8ue170006IiKiLi0EEEPT_S3_PT0_NS_15__element_countE, symObjAddr: 0xD01C, symBinAddr: 0x10000EF8C, symSize: 0x64 }
  - { offsetInCU: 0x17F2E, offset: 0x17F2E, size: 0x8, addend: 0x0, symName: __ZNSt3__19make_pairB8ue170006IRPKiPiEENS_4pairINS_18__unwrap_ref_decayIT_E4typeENS6_IT0_E4typeEEEOS7_OSA_, symObjAddr: 0xD080, symBinAddr: 0x10000EFF0, symSize: 0x38 }
  - { offsetInCU: 0x17F7D, offset: 0x17F7D, size: 0x8, addend: 0x0, symName: __ZNSt3__113__rewrap_iterB8ue170006IPKiS2_NS_18__unwrap_iter_implIS2_Lb1EEEEET_S5_T0_, symObjAddr: 0xD198, symBinAddr: 0x10000F108, symSize: 0x3C }
  - { offsetInCU: 0x18025, offset: 0x18025, size: 0x8, addend: 0x0, symName: __ZNSt3__119__allocate_at_leastB8ue170006INS_9allocatorINS_6vectorIiNS1_IiEEEEEEEENS_19__allocation_resultINS_16allocator_traitsIT_E7pointerEEERS8_m, symObjAddr: 0xDC68, symBinAddr: 0x10000FBD8, symSize: 0x40 }
  - { offsetInCU: 0x18068, offset: 0x18068, size: 0x8, addend: 0x0, symName: __ZNSt3__142__uninitialized_allocator_move_if_noexceptB8ue170006INS_9allocatorINS_6vectorIiNS1_IiEEEEEENS_16reverse_iteratorIPS4_EES8_S8_EET2_RT_T0_T1_S9_, symObjAddr: 0xDF10, symBinAddr: 0x10000FE80, symSize: 0x12C }
  - { offsetInCU: 0x18108, offset: 0x18108, size: 0x8, addend: 0x0, symName: __ZNSt3__14swapB8ue170006IPNS_6vectorIiNS_9allocatorIiEEEEEENS_9enable_ifIXaasr21is_move_constructibleIT_EE5valuesr18is_move_assignableIS7_EE5valueEvE4typeERS7_SA_, symObjAddr: 0xE088, symBinAddr: 0x10000FFF8, symSize: 0x3C }
  - { offsetInCU: 0x18159, offset: 0x18159, size: 0x8, addend: 0x0, symName: __ZNSt3__122__make_exception_guardB8ue170006INS_29_AllocatorDestroyRangeReverseINS_9allocatorINS_6vectorIiNS2_IiEEEEEENS_16reverse_iteratorIPS5_EEEEEENS_28__exception_guard_exceptionsIT_EESC_, symObjAddr: 0xE1D4, symBinAddr: 0x100010144, symSize: 0x4C }
  - { offsetInCU: 0x1818F, offset: 0x1818F, size: 0x8, addend: 0x0, symName: __ZNSt3__1neB8ue170006IPNS_6vectorIiNS_9allocatorIiEEEES5_EEbRKNS_16reverse_iteratorIT_EERKNS6_IT0_EE, symObjAddr: 0xE264, symBinAddr: 0x1000101D4, symSize: 0x48 }
  - { offsetInCU: 0x181DB, offset: 0x181DB, size: 0x8, addend: 0x0, symName: __ZNSt3__112__to_addressB8ue170006INS_16reverse_iteratorIPNS_6vectorIiNS_9allocatorIiEEEEEEvEEu7__decayIDTclsr19__to_address_helperIT_EE6__callclsr3stdE7declvalIRKS8_EEEEESA_, symObjAddr: 0xE2E0, symBinAddr: 0x100010250, symSize: 0x24 }
  - { offsetInCU: 0x1823A, offset: 0x1823A, size: 0x8, addend: 0x0, symName: __ZNSt3__119__allocator_destroyB8ue170006INS_9allocatorINS_6vectorIiNS1_IiEEEEEENS_16reverse_iteratorINS6_IPS4_EEEES9_EEvRT_T0_T1_, symObjAddr: 0xE5C0, symBinAddr: 0x100010530, symSize: 0x70 }
  - { offsetInCU: 0x1829F, offset: 0x1829F, size: 0x8, addend: 0x0, symName: __ZNSt3__1neB8ue170006INS_16reverse_iteratorIPNS_6vectorIiNS_9allocatorIiEEEEEES7_EEbRKNS1_IT_EERKNS1_IT0_EE, symObjAddr: 0xE66C, symBinAddr: 0x1000105DC, symSize: 0x60 }
  - { offsetInCU: 0x182EB, offset: 0x182EB, size: 0x8, addend: 0x0, symName: __ZNSt3__112__to_addressB8ue170006INS_16reverse_iteratorINS1_IPNS_6vectorIiNS_9allocatorIiEEEEEEEEvEEu7__decayIDTclsr19__to_address_helperIT_EE6__callclsr3stdE7declvalIRKS9_EEEEESB_, symObjAddr: 0xE6F8, symBinAddr: 0x100010668, symSize: 0x24 }
  - { offsetInCU: 0x1834A, offset: 0x1834A, size: 0x8, addend: 0x0, symName: __ZNSt3__130__uninitialized_allocator_copyB8ue170006INS_9allocatorIiEEPiS3_S3_EET2_RT_T0_T1_S4_, symObjAddr: 0xEFF8, symBinAddr: 0x100010F68, symSize: 0x80 }
  - { offsetInCU: 0x183E7, offset: 0x183E7, size: 0x8, addend: 0x0, symName: __ZNSt3__114__unwrap_rangeB8ue170006IPiS1_EENS_4pairIT0_S3_EET_S5_, symObjAddr: 0xF078, symBinAddr: 0x100010FE8, symSize: 0x60 }
  - { offsetInCU: 0x18433, offset: 0x18433, size: 0x8, addend: 0x0, symName: __ZNSt3__135__uninitialized_allocator_copy_implB8ue170006INS_9allocatorIiEEiiiLPv0EEEPT2_RT_PT0_S9_S5_, symObjAddr: 0xF0D8, symBinAddr: 0x100011048, symSize: 0x38 }
  - { offsetInCU: 0x184B4, offset: 0x184B4, size: 0x8, addend: 0x0, symName: __ZNSt3__19make_pairB8ue170006IPiS1_EENS_4pairINS_18__unwrap_ref_decayIT_E4typeENS3_IT0_E4typeEEEOS4_OS7_, symObjAddr: 0xF110, symBinAddr: 0x100011080, symSize: 0x38 }
  - { offsetInCU: 0x18606, offset: 0x18606, size: 0x8, addend: 0x0, symName: __ZNSt3__14copyB8ue170006IPiS1_EET0_T_S3_S2_, symObjAddr: 0xF1B8, symBinAddr: 0x100011128, symSize: 0x40 }
  - { offsetInCU: 0x18660, offset: 0x18660, size: 0x8, addend: 0x0, symName: __ZNSt3__16__copyB8ue170006INS_17_ClassicAlgPolicyEPiS2_S2_EENS_4pairIT0_T2_EES4_T1_S5_, symObjAddr: 0xF1F8, symBinAddr: 0x100011168, symSize: 0x44 }
  - { offsetInCU: 0x186CC, offset: 0x186CC, size: 0x8, addend: 0x0, symName: __ZNSt3__123__dispatch_copy_or_moveB8ue170006INS_17_ClassicAlgPolicyENS_11__copy_loopIS1_EENS_14__copy_trivialEPiS5_S5_EENS_4pairIT2_T4_EES7_T3_S8_, symObjAddr: 0xF23C, symBinAddr: 0x1000111AC, symSize: 0x44 }
  - { offsetInCU: 0x1874A, offset: 0x1874A, size: 0x8, addend: 0x0, symName: __ZNSt3__121__unwrap_and_dispatchB8ue170006INS_10__overloadINS_11__copy_loopINS_17_ClassicAlgPolicyEEENS_14__copy_trivialEEEPiS7_S7_Li0EEENS_4pairIT0_T2_EES9_T1_SA_, symObjAddr: 0xF280, symBinAddr: 0x1000111F0, symSize: 0xB4 }
  - { offsetInCU: 0x187D8, offset: 0x187D8, size: 0x8, addend: 0x0, symName: __ZNSt3__114__rewrap_rangeB8ue170006IPiS1_EET_S2_T0_, symObjAddr: 0xF37C, symBinAddr: 0x1000112EC, symSize: 0x2C }
  - { offsetInCU: 0x18824, offset: 0x18824, size: 0x8, addend: 0x0, symName: __ZNSt3__119__copy_trivial_implB8ue170006IiiEENS_4pairIPT_PT0_EES3_S3_S5_, symObjAddr: 0xF3A8, symBinAddr: 0x100011318, symSize: 0x80 }
  - { offsetInCU: 0x1888C, offset: 0x1888C, size: 0x8, addend: 0x0, symName: __ZNSt3__119__constexpr_memmoveB8ue170006IiiLi0EEEPT_S2_PT0_NS_15__element_countE, symObjAddr: 0xF428, symBinAddr: 0x100011398, symSize: 0x64 }
  - { offsetInCU: 0x188FA, offset: 0x188FA, size: 0x8, addend: 0x0, symName: __ZNSt3__19make_pairB8ue170006IRPiS1_EENS_4pairINS_18__unwrap_ref_decayIT_E4typeENS4_IT0_E4typeEEEOS5_OS8_, symObjAddr: 0xF48C, symBinAddr: 0x1000113FC, symSize: 0x38 }
  - { offsetInCU: 0x18949, offset: 0x18949, size: 0x8, addend: 0x0, symName: __ZNSt3__116__pad_and_outputB8ue170006IcNS_11char_traitsIcEEEENS_19ostreambuf_iteratorIT_T0_EES6_PKS4_S8_S8_RNS_8ios_baseES4_, symObjAddr: 0xF88C, symBinAddr: 0x1000117FC, symSize: 0x240 }
  - { offsetInCU: 0x18A18, offset: 0x18A18, size: 0x8, addend: 0x0, symName: __ZNSt3__112__to_addressB8ue170006IcEEPT_S2_, symObjAddr: 0xFCD0, symBinAddr: 0x100011C40, symSize: 0x14 }
  - { offsetInCU: 0x18A4D, offset: 0x18A4D, size: 0x8, addend: 0x0, symName: __ZNSt3__118__constexpr_strlenB8ue170006EPKc, symObjAddr: 0xFD8C, symBinAddr: 0x100011CFC, symSize: 0x24 }
  - { offsetInCU: 0x18A79, offset: 0x18A79, size: 0x8, addend: 0x0, symName: __ZNSt3__122__make_exception_guardB8ue170006INS_6vectorINS1_I5StateNS_9allocatorIS2_EEEENS3_IS5_EEE16__destroy_vectorEEENS_28__exception_guard_exceptionsIT_EESA_, symObjAddr: 0xFF64, symBinAddr: 0x100011ED4, symSize: 0x40 }
  - { offsetInCU: 0x18AAE, offset: 0x18AAE, size: 0x8, addend: 0x0, symName: __ZNSt3__130__uninitialized_allocator_copyB8ue170006INS_9allocatorINS_6vectorI5StateNS1_IS3_EEEEEEPS5_S7_S7_EET2_RT_T0_T1_S8_, symObjAddr: 0x10184, symBinAddr: 0x1000120F4, symSize: 0x80 }
  - { offsetInCU: 0x18B4B, offset: 0x18B4B, size: 0x8, addend: 0x0, symName: __ZNSt3__114__unwrap_rangeB8ue170006IPNS_6vectorI5StateNS_9allocatorIS2_EEEES6_EENS_4pairIT0_S8_EET_SA_, symObjAddr: 0x10204, symBinAddr: 0x100012174, symSize: 0x60 }
  - { offsetInCU: 0x18B97, offset: 0x18B97, size: 0x8, addend: 0x0, symName: __ZNSt3__135__uninitialized_allocator_copy_implB8ue170006INS_9allocatorINS_6vectorI5StateNS1_IS3_EEEEEEPS5_S7_S7_EET2_RT_T0_T1_S8_, symObjAddr: 0x10264, symBinAddr: 0x1000121D4, symSize: 0xF4 }
  - { offsetInCU: 0x18C35, offset: 0x18C35, size: 0x8, addend: 0x0, symName: __ZNSt3__113__unwrap_iterB8ue170006IPNS_6vectorI5StateNS_9allocatorIS2_EEEENS_18__unwrap_iter_implIS6_Lb1EEELi0EEEDTclsrT0_8__unwrapclsr3stdE7declvalIT_EEEESA_, symObjAddr: 0x10358, symBinAddr: 0x1000122C8, symSize: 0x24 }
  - { offsetInCU: 0x18C79, offset: 0x18C79, size: 0x8, addend: 0x0, symName: __ZNSt3__113__rewrap_iterB8ue170006IPNS_6vectorI5StateNS_9allocatorIS2_EEEES6_NS_18__unwrap_iter_implIS6_Lb1EEEEET_S9_T0_, symObjAddr: 0x1037C, symBinAddr: 0x1000122EC, symSize: 0x3C }
  - { offsetInCU: 0x18CCE, offset: 0x18CCE, size: 0x8, addend: 0x0, symName: __ZNSt3__19make_pairB8ue170006IPNS_6vectorI5StateNS_9allocatorIS2_EEEES6_EENS_4pairINS_18__unwrap_ref_decayIT_E4typeENS8_IT0_E4typeEEEOS9_OSC_, symObjAddr: 0x103B8, symBinAddr: 0x100012328, symSize: 0x38 }
  - { offsetInCU: 0x18DF1, offset: 0x18DF1, size: 0x8, addend: 0x0, symName: __ZNSt3__122__make_exception_guardB8ue170006INS_29_AllocatorDestroyRangeReverseINS_9allocatorINS_6vectorI5StateNS2_IS4_EEEEEEPS6_EEEENS_28__exception_guard_exceptionsIT_EESB_, symObjAddr: 0x10460, symBinAddr: 0x1000123D0, symSize: 0x4C }
  - { offsetInCU: 0x18E27, offset: 0x18E27, size: 0x8, addend: 0x0, symName: __ZNSt3__119__allocator_destroyB8ue170006INS_9allocatorINS_6vectorI5StateNS1_IS3_EEEEEENS_16reverse_iteratorIPS5_EES9_EEvRT_T0_T1_, symObjAddr: 0x106F0, symBinAddr: 0x100012660, symSize: 0x70 }
  - { offsetInCU: 0x195E8, offset: 0x195E8, size: 0x8, addend: 0x0, symName: __ZSt28__throw_bad_array_new_lengthB8ue170006v, symObjAddr: 0x3510, symBinAddr: 0x100005480, symSize: 0x34 }
  - { offsetInCU: 0x1A01E, offset: 0x1A01E, size: 0x8, addend: 0x0, symName: __ZNSt3__16vectorI5StateNS_9allocatorIS1_EEE26__swap_out_circular_bufferERNS_14__split_bufferIS1_RS3_EE, symObjAddr: 0x2E2C, symBinAddr: 0x100004D9C, symSize: 0x110 }
  - { offsetInCU: 0x1A220, offset: 0x1A220, size: 0x8, addend: 0x0, symName: __ZNSt3__16vectorINS0_I5StateNS_9allocatorIS1_EEEENS2_IS4_EEE26__swap_out_circular_bufferERNS_14__split_bufferIS4_RS5_EE, symObjAddr: 0x5D98, symBinAddr: 0x100007D08, symSize: 0x110 }
  - { offsetInCU: 0x1A588, offset: 0x1A588, size: 0x8, addend: 0x0, symName: __ZNSt3__16vectorINS0_IiNS_9allocatorIiEEEENS1_IS3_EEE26__swap_out_circular_bufferERNS_14__split_bufferIS3_RS4_EE, symObjAddr: 0xD858, symBinAddr: 0x10000F7C8, symSize: 0x110 }
  - { offsetInCU: 0x1CBCB, offset: 0x1CBCB, size: 0x8, addend: 0x0, symName: __Z9ParseLineNSt3__112basic_stringIcNS_11char_traitsIcEENS_9allocatorIcEEEE, symObjAddr: 0x0, symBinAddr: 0x100001F70, symSize: 0x190 }
  - { offsetInCU: 0x1CC35, offset: 0x1CC35, size: 0x8, addend: 0x0, symName: __ZNSt3__119basic_istringstreamIcNS_11char_traitsIcEENS_9allocatorIcEEEC1B8ue170006ERKNS_12basic_stringIcS2_S4_EEj, symObjAddr: 0x190, symBinAddr: 0x100002100, symSize: 0xFC }
  - { offsetInCU: 0x1CC7D, offset: 0x1CC7D, size: 0x8, addend: 0x0, symName: __ZNSt3__16vectorI5StateNS_9allocatorIS1_EEEC1B8ue170006Ev, symObjAddr: 0x28C, symBinAddr: 0x1000021FC, symSize: 0x2C }
  - { offsetInCU: 0x1CCA7, offset: 0x1CCA7, size: 0x8, addend: 0x0, symName: __ZNKSt3__19basic_iosIcNS_11char_traitsIcEEEcvbB8ue170006Ev, symObjAddr: 0x448, symBinAddr: 0x1000023B8, symSize: 0x2C }
  - { offsetInCU: 0x1CCCD, offset: 0x1CCCD, size: 0x8, addend: 0x0, symName: __ZNSt3__16vectorI5StateNS_9allocatorIS1_EEE9push_backB8ue170006EOS1_, symObjAddr: 0x474, symBinAddr: 0x1000023E4, symSize: 0x6C }
  - { offsetInCU: 0x1CD04, offset: 0x1CD04, size: 0x8, addend: 0x0, symName: __ZNSt3__16vectorI5StateNS_9allocatorIS1_EEED1B8ue170006Ev, symObjAddr: 0x4E0, symBinAddr: 0x100002450, symSize: 0x2C }
  - { offsetInCU: 0x1CD33, offset: 0x1CD33, size: 0x8, addend: 0x0, symName: __ZNSt3__119basic_istringstreamIcNS_11char_traitsIcEENS_9allocatorIcEEED1Ev, symObjAddr: 0x50C, symBinAddr: 0x10000247C, symSize: 0x40 }
  - { offsetInCU: 0x1CD5F, offset: 0x1CD5F, size: 0x8, addend: 0x0, symName: __Z13ReadBoardFileNSt3__112basic_stringIcNS_11char_traitsIcEENS_9allocatorIcEEEE, symObjAddr: 0x54C, symBinAddr: 0x1000024BC, symSize: 0x1F8 }
  - { offsetInCU: 0x1CDD7, offset: 0x1CDD7, size: 0x8, addend: 0x0, symName: __ZNSt3__114basic_ifstreamIcNS_11char_traitsIcEEEC1ERKNS_12basic_stringIcS2_NS_9allocatorIcEEEEj, symObjAddr: 0x744, symBinAddr: 0x1000026B4, symSize: 0x16C }
  - { offsetInCU: 0x1CE21, offset: 0x1CE21, size: 0x8, addend: 0x0, symName: __ZNSt3__16vectorINS0_I5StateNS_9allocatorIS1_EEEENS2_IS4_EEEC1B8ue170006Ev, symObjAddr: 0x8B0, symBinAddr: 0x100002820, symSize: 0x2C }
  - { offsetInCU: 0x1CE4B, offset: 0x1CE4B, size: 0x8, addend: 0x0, symName: __ZNSt3__112basic_stringIcNS_11char_traitsIcEENS_9allocatorIcEEEC1B8ue170006Ev, symObjAddr: 0x8DC, symBinAddr: 0x10000284C, symSize: 0x2C }
  - { offsetInCU: 0x1CE75, offset: 0x1CE75, size: 0x8, addend: 0x0, symName: __ZNSt3__16vectorINS0_I5StateNS_9allocatorIS1_EEEENS2_IS4_EEE9push_backB8ue170006ERKS4_, symObjAddr: 0x964, symBinAddr: 0x1000028D4, symSize: 0x6C }
  - { offsetInCU: 0x1CEAC, offset: 0x1CEAC, size: 0x8, addend: 0x0, symName: __ZNSt3__16vectorINS0_I5StateNS_9allocatorIS1_EEEENS2_IS4_EEED1B8ue170006Ev, symObjAddr: 0x9D0, symBinAddr: 0x100002940, symSize: 0x2C }
  - { offsetInCU: 0x1CEDB, offset: 0x1CEDB, size: 0x8, addend: 0x0, symName: __ZNSt3__114basic_ifstreamIcNS_11char_traitsIcEEED1Ev, symObjAddr: 0x9FC, symBinAddr: 0x10000296C, symSize: 0x40 }
  - { offsetInCU: 0x1CF07, offset: 0x1CF07, size: 0x8, addend: 0x0, symName: __Z7CompareNSt3__16vectorIiNS_9allocatorIiEEEES3_, symObjAddr: 0xA3C, symBinAddr: 0x1000029AC, symSize: 0xB0 }
  - { offsetInCU: 0x1CF60, offset: 0x1CF60, size: 0x8, addend: 0x0, symName: __ZNKSt3__16vectorIiNS_9allocatorIiEEEixB8ue170006Em, symObjAddr: 0xAEC, symBinAddr: 0x100002A5C, symSize: 0x24 }
  - { offsetInCU: 0x1CF96, offset: 0x1CF96, size: 0x8, addend: 0x0, symName: __Z8CellSortPNSt3__16vectorINS0_IiNS_9allocatorIiEEEENS1_IS3_EEEE, symObjAddr: 0xB10, symBinAddr: 0x100002A80, symSize: 0x48 }
  - { offsetInCU: 0x1CFBF, offset: 0x1CFBF, size: 0x8, addend: 0x0, symName: __ZNSt3__16vectorINS0_IiNS_9allocatorIiEEEENS1_IS3_EEE5beginB8ue170006Ev, symObjAddr: 0xBA0, symBinAddr: 0x100002B10, symSize: 0x30 }
  - { offsetInCU: 0x1CFE7, offset: 0x1CFE7, size: 0x8, addend: 0x0, symName: __ZNSt3__16vectorINS0_IiNS_9allocatorIiEEEENS1_IS3_EEE3endB8ue170006Ev, symObjAddr: 0xBD0, symBinAddr: 0x100002B40, symSize: 0x30 }
  - { offsetInCU: 0x1D00E, offset: 0x1D00E, size: 0x8, addend: 0x0, symName: __Z9Heuristiciiii, symObjAddr: 0xC00, symBinAddr: 0x100002B70, symSize: 0x58 }
  - { offsetInCU: 0x1D064, offset: 0x1D064, size: 0x8, addend: 0x0, symName: __Z14CheckValidCelliiRNSt3__16vectorINS0_I5StateNS_9allocatorIS1_EEEENS2_IS4_EEEE, symObjAddr: 0xC58, symBinAddr: 0x100002BC8, symSize: 0x130 }
  - { offsetInCU: 0x1D0C9, offset: 0x1D0C9, size: 0x8, addend: 0x0, symName: __ZNKSt3__16vectorINS0_I5StateNS_9allocatorIS1_EEEENS2_IS4_EEE4sizeB8ue170006Ev, symObjAddr: 0xD88, symBinAddr: 0x100002CF8, symSize: 0x28 }
  - { offsetInCU: 0x1D0EF, offset: 0x1D0EF, size: 0x8, addend: 0x0, symName: __ZNSt3__16vectorINS0_I5StateNS_9allocatorIS1_EEEENS2_IS4_EEEixB8ue170006Em, symObjAddr: 0xDB0, symBinAddr: 0x100002D20, symSize: 0x2C }
  - { offsetInCU: 0x1D126, offset: 0x1D126, size: 0x8, addend: 0x0, symName: __ZNKSt3__16vectorI5StateNS_9allocatorIS1_EEE4sizeB8ue170006Ev, symObjAddr: 0xDDC, symBinAddr: 0x100002D4C, symSize: 0x28 }
  - { offsetInCU: 0x1D14C, offset: 0x1D14C, size: 0x8, addend: 0x0, symName: __ZNSt3__16vectorI5StateNS_9allocatorIS1_EEEixB8ue170006Em, symObjAddr: 0xE04, symBinAddr: 0x100002D74, symSize: 0x24 }
  - { offsetInCU: 0x1D182, offset: 0x1D182, size: 0x8, addend: 0x0, symName: __Z9AddToOpeniiiiRNSt3__16vectorINS0_IiNS_9allocatorIiEEEENS1_IS3_EEEERNS0_INS0_I5StateNS1_IS7_EEEENS1_IS9_EEEE, symObjAddr: 0xE28, symBinAddr: 0x100002D98, symSize: 0xFC }
  - { offsetInCU: 0x1D1FF, offset: 0x1D1FF, size: 0x8, addend: 0x0, symName: __ZNSt3__16vectorIiNS_9allocatorIiEEEC1B8ue170006ESt16initializer_listIiE, symObjAddr: 0xF24, symBinAddr: 0x100002E94, symSize: 0x3C }
  - { offsetInCU: 0x1D23A, offset: 0x1D23A, size: 0x8, addend: 0x0, symName: __ZNSt3__16vectorINS0_IiNS_9allocatorIiEEEENS1_IS3_EEE9push_backB8ue170006ERKS3_, symObjAddr: 0xF60, symBinAddr: 0x100002ED0, symSize: 0x6C }
  - { offsetInCU: 0x1D271, offset: 0x1D271, size: 0x8, addend: 0x0, symName: __ZNSt3__16vectorIiNS_9allocatorIiEEED1B8ue170006Ev, symObjAddr: 0xFCC, symBinAddr: 0x100002F3C, symSize: 0x2C }
  - { offsetInCU: 0x1D29A, offset: 0x1D29A, size: 0x8, addend: 0x0, symName: __Z15ExpandNeighborsRKNSt3__16vectorIiNS_9allocatorIiEEEEPiRNS0_IS3_NS1_IS3_EEEERNS0_INS0_I5StateNS1_ISA_EEEENS1_ISC_EEEE, symObjAddr: 0xFF8, symBinAddr: 0x100002F68, symSize: 0x130 }
  - { offsetInCU: 0x1D386, offset: 0x1D386, size: 0x8, addend: 0x0, symName: __Z6SearchNSt3__16vectorINS0_I5StateNS_9allocatorIS1_EEEENS2_IS4_EEEEPiS7_, symObjAddr: 0x1128, symBinAddr: 0x100003098, symSize: 0x294 }
  - { offsetInCU: 0x1D449, offset: 0x1D449, size: 0x8, addend: 0x0, symName: __ZNSt3__16vectorINS0_IiNS_9allocatorIiEEEENS1_IS3_EEEC1B8ue170006Ev, symObjAddr: 0x13BC, symBinAddr: 0x10000332C, symSize: 0x2C }
  - { offsetInCU: 0x1D473, offset: 0x1D473, size: 0x8, addend: 0x0, symName: __ZNKSt3__16vectorINS0_IiNS_9allocatorIiEEEENS1_IS3_EEE5emptyB8ue170006Ev, symObjAddr: 0x13E8, symBinAddr: 0x100003358, symSize: 0x28 }
  - { offsetInCU: 0x1D499, offset: 0x1D499, size: 0x8, addend: 0x0, symName: __ZNSt3__16vectorINS0_IiNS_9allocatorIiEEEENS1_IS3_EEE4backB8ue170006Ev, symObjAddr: 0x1410, symBinAddr: 0x100003380, symSize: 0x1C }
  - { offsetInCU: 0x1D4BF, offset: 0x1D4BF, size: 0x8, addend: 0x0, symName: __ZNSt3__16vectorIiNS_9allocatorIiEEEC1ERKS3_, symObjAddr: 0x142C, symBinAddr: 0x10000339C, symSize: 0x34 }
  - { offsetInCU: 0x1D4FA, offset: 0x1D4FA, size: 0x8, addend: 0x0, symName: __ZNSt3__16vectorINS0_IiNS_9allocatorIiEEEENS1_IS3_EEE8pop_backEv, symObjAddr: 0x1460, symBinAddr: 0x1000033D0, symSize: 0x2C }
  - { offsetInCU: 0x1D522, offset: 0x1D522, size: 0x8, addend: 0x0, symName: __ZNSt3__16vectorIiNS_9allocatorIiEEEixB8ue170006Em, symObjAddr: 0x148C, symBinAddr: 0x1000033FC, symSize: 0x24 }
  - { offsetInCU: 0x1D559, offset: 0x1D559, size: 0x8, addend: 0x0, symName: __ZNSt3__16vectorINS0_I5StateNS_9allocatorIS1_EEEENS2_IS4_EEEC1B8ue170006EOS6_, symObjAddr: 0x14B0, symBinAddr: 0x100003420, symSize: 0x34 }
  - { offsetInCU: 0x1D594, offset: 0x1D594, size: 0x8, addend: 0x0, symName: __ZNSt3__16vectorINS0_IiNS_9allocatorIiEEEENS1_IS3_EEED1B8ue170006Ev, symObjAddr: 0x152C, symBinAddr: 0x10000349C, symSize: 0x2C }
  - { offsetInCU: 0x1D5BD, offset: 0x1D5BD, size: 0x8, addend: 0x0, symName: __Z10CellString5State, symObjAddr: 0x1558, symBinAddr: 0x1000034C8, symSize: 0xD8 }
  - { offsetInCU: 0x1D5EF, offset: 0x1D5EF, size: 0x8, addend: 0x0, symName: __ZNSt3__112basic_stringIcNS_11char_traitsIcEENS_9allocatorIcEEEC1B8ue170006ILi0EEEPKc, symObjAddr: 0x1630, symBinAddr: 0x1000035A0, symSize: 0x34 }
  - { offsetInCU: 0x1D62D, offset: 0x1D62D, size: 0x8, addend: 0x0, symName: __Z10PrintBoardNSt3__16vectorINS0_I5StateNS_9allocatorIS1_EEEENS2_IS4_EEEE, symObjAddr: 0x1664, symBinAddr: 0x1000035D4, symSize: 0x11C }
  - { offsetInCU: 0x1D67F, offset: 0x1D67F, size: 0x8, addend: 0x0, symName: __ZNKSt3__16vectorINS0_I5StateNS_9allocatorIS1_EEEENS2_IS4_EEEixB8ue170006Em, symObjAddr: 0x1780, symBinAddr: 0x1000036F0, symSize: 0x2C }
  - { offsetInCU: 0x1D6B6, offset: 0x1D6B6, size: 0x8, addend: 0x0, symName: __ZNKSt3__16vectorI5StateNS_9allocatorIS1_EEEixB8ue170006Em, symObjAddr: 0x17F8, symBinAddr: 0x100003768, symSize: 0x24 }
  - { offsetInCU: 0x1D6ED, offset: 0x1D6ED, size: 0x8, addend: 0x0, symName: _main, symObjAddr: 0x181C, symBinAddr: 0x10000378C, symSize: 0x17C }
  - { offsetInCU: 0x1D741, offset: 0x1D741, size: 0x8, addend: 0x0, symName: __ZNSt3__16vectorINS0_I5StateNS_9allocatorIS1_EEEENS2_IS4_EEEC1ERKS6_, symObjAddr: 0x1998, symBinAddr: 0x100003908, symSize: 0x34 }
  - { offsetInCU: 0x1D77C, offset: 0x1D77C, size: 0x8, addend: 0x0, symName: __ZNSt3__119basic_istringstreamIcNS_11char_traitsIcEENS_9allocatorIcEEED2Ev, symObjAddr: 0x19CC, symBinAddr: 0x10000393C, symSize: 0x64 }
  - { offsetInCU: 0x1D7B6, offset: 0x1D7B6, size: 0x8, addend: 0x0, symName: __ZTv0_n24_NSt3__119basic_istringstreamIcNS_11char_traitsIcEENS_9allocatorIcEEED1Ev, symObjAddr: 0x1A30, symBinAddr: 0x1000039A0, symSize: 0x28 }
  - { offsetInCU: 0x1D7D2, offset: 0x1D7D2, size: 0x8, addend: 0x0, symName: __ZNSt3__115basic_stringbufIcNS_11char_traitsIcEENS_9allocatorIcEEED1Ev, symObjAddr: 0x1A58, symBinAddr: 0x1000039C8, symSize: 0x2C }
  - { offsetInCU: 0x1D7FF, offset: 0x1D7FF, size: 0x8, addend: 0x0, symName: __ZNSt3__115basic_stringbufIcNS_11char_traitsIcEENS_9allocatorIcEEED2Ev, symObjAddr: 0x1A84, symBinAddr: 0x1000039F4, symSize: 0x48 }
  - { offsetInCU: 0x1D82C, offset: 0x1D82C, size: 0x8, addend: 0x0, symName: __ZNSt3__114basic_ifstreamIcNS_11char_traitsIcEEED2Ev, symObjAddr: 0x1ACC, symBinAddr: 0x100003A3C, symSize: 0x64 }
  - { offsetInCU: 0x1D866, offset: 0x1D866, size: 0x8, addend: 0x0, symName: __ZTv0_n24_NSt3__114basic_ifstreamIcNS_11char_traitsIcEEED1Ev, symObjAddr: 0x1B30, symBinAddr: 0x100003AA0, symSize: 0x28 }
  - { offsetInCU: 0x1D87D, offset: 0x1D87D, size: 0x8, addend: 0x0, symName: __ZNSt3__112basic_stringIcNS_11char_traitsIcEENS_9allocatorIcEEEC2B8ue170006Ev, symObjAddr: 0x1B58, symBinAddr: 0x100003AC8, symSize: 0x48 }
  - { offsetInCU: 0x1D8AD, offset: 0x1D8AD, size: 0x8, addend: 0x0, symName: __ZNSt3__117__compressed_pairINS_12basic_stringIcNS_11char_traitsIcEENS_9allocatorIcEEE5__repES5_EC1B8ue170006INS_18__default_init_tagESA_EEOT_OT0_, symObjAddr: 0x1BA0, symBinAddr: 0x100003B10, symSize: 0x3C }
  - { offsetInCU: 0x1D905, offset: 0x1D905, size: 0x8, addend: 0x0, symName: __ZNSt3__112basic_stringIcNS_11char_traitsIcEENS_9allocatorIcEEE14__default_initB8ue170006Ev, symObjAddr: 0x1BE8, symBinAddr: 0x100003B58, symSize: 0x40 }
  - { offsetInCU: 0x1D92B, offset: 0x1D92B, size: 0x8, addend: 0x0, symName: __ZNSt3__117__compressed_pairINS_12basic_stringIcNS_11char_traitsIcEENS_9allocatorIcEEE5__repES5_EC2B8ue170006INS_18__default_init_tagESA_EEOT_OT0_, symObjAddr: 0x1C28, symBinAddr: 0x100003B98, symSize: 0x3C }
  - { offsetInCU: 0x1D983, offset: 0x1D983, size: 0x8, addend: 0x0, symName: __ZNSt3__122__compressed_pair_elemINS_12basic_stringIcNS_11char_traitsIcEENS_9allocatorIcEEE5__repELi0ELb0EEC2B8ue170006ENS_18__default_init_tagE, symObjAddr: 0x1C64, symBinAddr: 0x100003BD4, symSize: 0x14 }
  - { offsetInCU: 0x1D9B7, offset: 0x1D9B7, size: 0x8, addend: 0x0, symName: __ZNSt3__122__compressed_pair_elemINS_9allocatorIcEELi1ELb1EEC2B8ue170006ENS_18__default_init_tagE, symObjAddr: 0x1C78, symBinAddr: 0x100003BE8, symSize: 0x2C }
  - { offsetInCU: 0x1D9EB, offset: 0x1D9EB, size: 0x8, addend: 0x0, symName: __ZNSt3__19allocatorIcEC2B8ue170006Ev, symObjAddr: 0x1CA4, symBinAddr: 0x100003C14, symSize: 0x2C }
  - { offsetInCU: 0x1DA15, offset: 0x1DA15, size: 0x8, addend: 0x0, symName: __ZNSt3__116__non_trivial_ifILb1ENS_9allocatorIcEEEC2B8ue170006Ev, symObjAddr: 0x1CD0, symBinAddr: 0x100003C40, symSize: 0x14 }
  - { offsetInCU: 0x1DA3F, offset: 0x1DA3F, size: 0x8, addend: 0x0, symName: __ZNSt3__117__compressed_pairINS_12basic_stringIcNS_11char_traitsIcEENS_9allocatorIcEEE5__repES5_E5firstB8ue170006Ev, symObjAddr: 0x1CE4, symBinAddr: 0x100003C54, symSize: 0x24 }
  - { offsetInCU: 0x1DA65, offset: 0x1DA65, size: 0x8, addend: 0x0, symName: __ZNSt3__122__compressed_pair_elemINS_12basic_stringIcNS_11char_traitsIcEENS_9allocatorIcEEE5__repELi0ELb0EE5__getB8ue170006Ev, symObjAddr: 0x1D08, symBinAddr: 0x100003C78, symSize: 0x14 }
  - { offsetInCU: 0x1DA8B, offset: 0x1DA8B, size: 0x8, addend: 0x0, symName: __ZNSt3__19basic_iosIcNS_11char_traitsIcEEEC2B8ue170006Ev, symObjAddr: 0x1D1C, symBinAddr: 0x100003C8C, symSize: 0x44 }
  - { offsetInCU: 0x1DAB5, offset: 0x1DAB5, size: 0x8, addend: 0x0, symName: __ZNSt3__113basic_istreamIcNS_11char_traitsIcEEEC2B8ue170006EPNS_15basic_streambufIcS2_EE, symObjAddr: 0x1D60, symBinAddr: 0x100003CD0, symSize: 0x64 }
  - { offsetInCU: 0x1DAFA, offset: 0x1DAFA, size: 0x8, addend: 0x0, symName: __ZNSt3__115basic_stringbufIcNS_11char_traitsIcEENS_9allocatorIcEEEC1B8ue170006ERKNS_12basic_stringIcS2_S4_EEj, symObjAddr: 0x1DC4, symBinAddr: 0x100003D34, symSize: 0x3C }
  - { offsetInCU: 0x1DB42, offset: 0x1DB42, size: 0x8, addend: 0x0, symName: __ZNSt3__18ios_baseC2B8ue170006Ev, symObjAddr: 0x1E00, symBinAddr: 0x100003D70, symSize: 0x24 }
  - { offsetInCU: 0x1DB6C, offset: 0x1DB6C, size: 0x8, addend: 0x0, symName: __ZNSt3__19basic_iosIcNS_11char_traitsIcEEE4initB8ue170006EPNS_15basic_streambufIcS2_EE, symObjAddr: 0x1E24, symBinAddr: 0x100003D94, symSize: 0x44 }
  - { offsetInCU: 0x1DBA3, offset: 0x1DBA3, size: 0x8, addend: 0x0, symName: __ZNSt3__111char_traitsIcE3eofB8ue170006Ev, symObjAddr: 0x1E68, symBinAddr: 0x100003DD8, symSize: 0x8 }
  - { offsetInCU: 0x1DBB7, offset: 0x1DBB7, size: 0x8, addend: 0x0, symName: __ZNSt3__115basic_stringbufIcNS_11char_traitsIcEENS_9allocatorIcEEEC2B8ue170006ERKNS_12basic_stringIcS2_S4_EEj, symObjAddr: 0x1E70, symBinAddr: 0x100003DE0, symSize: 0xB4 }
  - { offsetInCU: 0x1DBFF, offset: 0x1DBFF, size: 0x8, addend: 0x0, symName: __ZNKSt3__112basic_stringIcNS_11char_traitsIcEENS_9allocatorIcEEE13get_allocatorB8ue170006Ev, symObjAddr: 0x1F24, symBinAddr: 0x100003E94, symSize: 0x24 }
  - { offsetInCU: 0x1DC25, offset: 0x1DC25, size: 0x8, addend: 0x0, symName: __ZNSt3__112basic_stringIcNS_11char_traitsIcEENS_9allocatorIcEEEC1B8ue170006ERKS4_, symObjAddr: 0x1F48, symBinAddr: 0x100003EB8, symSize: 0x34 }
  - { offsetInCU: 0x1DC5E, offset: 0x1DC5E, size: 0x8, addend: 0x0, symName: __ZNKSt3__112basic_stringIcNS_11char_traitsIcEENS_9allocatorIcEEE7__allocB8ue170006Ev, symObjAddr: 0x1F7C, symBinAddr: 0x100003EEC, symSize: 0x24 }
  - { offsetInCU: 0x1DC84, offset: 0x1DC84, size: 0x8, addend: 0x0, symName: __ZNKSt3__117__compressed_pairINS_12basic_stringIcNS_11char_traitsIcEENS_9allocatorIcEEE5__repES5_E6secondB8ue170006Ev, symObjAddr: 0x1FA0, symBinAddr: 0x100003F10, symSize: 0x24 }
  - { offsetInCU: 0x1DCAA, offset: 0x1DCAA, size: 0x8, addend: 0x0, symName: __ZNKSt3__122__compressed_pair_elemINS_9allocatorIcEELi1ELb1EE5__getB8ue170006Ev, symObjAddr: 0x1FC4, symBinAddr: 0x100003F34, symSize: 0x14 }
  - { offsetInCU: 0x1DCD0, offset: 0x1DCD0, size: 0x8, addend: 0x0, symName: __ZNSt3__112basic_stringIcNS_11char_traitsIcEENS_9allocatorIcEEEC2B8ue170006ERKS4_, symObjAddr: 0x1FD8, symBinAddr: 0x100003F48, symSize: 0x48 }
  - { offsetInCU: 0x1DD09, offset: 0x1DD09, size: 0x8, addend: 0x0, symName: __ZNSt3__117__compressed_pairINS_12basic_stringIcNS_11char_traitsIcEENS_9allocatorIcEEE5__repES5_EC1B8ue170006INS_18__default_init_tagERKS5_EEOT_OT0_, symObjAddr: 0x2020, symBinAddr: 0x100003F90, symSize: 0x3C }
  - { offsetInCU: 0x1DD61, offset: 0x1DD61, size: 0x8, addend: 0x0, symName: __ZNSt3__117__compressed_pairINS_12basic_stringIcNS_11char_traitsIcEENS_9allocatorIcEEE5__repES5_EC2B8ue170006INS_18__default_init_tagERKS5_EEOT_OT0_, symObjAddr: 0x205C, symBinAddr: 0x100003FCC, symSize: 0x40 }
  - { offsetInCU: 0x1DDB9, offset: 0x1DDB9, size: 0x8, addend: 0x0, symName: __ZNSt3__122__compressed_pair_elemINS_9allocatorIcEELi1ELb1EEC2B8ue170006IRKS2_vEEOT_, symObjAddr: 0x209C, symBinAddr: 0x10000400C, symSize: 0x18 }
  - { offsetInCU: 0x1DDFB, offset: 0x1DDFB, size: 0x8, addend: 0x0, symName: __ZNSt3__16vectorI5StateNS_9allocatorIS1_EEEC2B8ue170006Ev, symObjAddr: 0x20B4, symBinAddr: 0x100004024, symSize: 0x4C }
  - { offsetInCU: 0x1DE2B, offset: 0x1DE2B, size: 0x8, addend: 0x0, symName: __ZNSt3__117__compressed_pairIP5StateNS_9allocatorIS1_EEEC1B8ue170006IDnNS_18__default_init_tagEEEOT_OT0_, symObjAddr: 0x2100, symBinAddr: 0x100004070, symSize: 0x3C }
  - { offsetInCU: 0x1DE83, offset: 0x1DE83, size: 0x8, addend: 0x0, symName: __ZNSt3__117__compressed_pairIP5StateNS_9allocatorIS1_EEEC2B8ue170006IDnNS_18__default_init_tagEEEOT_OT0_, symObjAddr: 0x213C, symBinAddr: 0x1000040AC, symSize: 0x40 }
  - { offsetInCU: 0x1DEDB, offset: 0x1DEDB, size: 0x8, addend: 0x0, symName: __ZNSt3__122__compressed_pair_elemIP5StateLi0ELb0EEC2B8ue170006IDnvEEOT_, symObjAddr: 0x217C, symBinAddr: 0x1000040EC, symSize: 0x1C }
  - { offsetInCU: 0x1DF1D, offset: 0x1DF1D, size: 0x8, addend: 0x0, symName: __ZNSt3__122__compressed_pair_elemINS_9allocatorI5StateEELi1ELb1EEC2B8ue170006ENS_18__default_init_tagE, symObjAddr: 0x2198, symBinAddr: 0x100004108, symSize: 0x2C }
  - { offsetInCU: 0x1DF51, offset: 0x1DF51, size: 0x8, addend: 0x0, symName: __ZNSt3__19allocatorI5StateEC2B8ue170006Ev, symObjAddr: 0x21C4, symBinAddr: 0x100004134, symSize: 0x2C }
  - { offsetInCU: 0x1DF7B, offset: 0x1DF7B, size: 0x8, addend: 0x0, symName: __ZNSt3__116__non_trivial_ifILb1ENS_9allocatorI5StateEEEC2B8ue170006Ev, symObjAddr: 0x21F0, symBinAddr: 0x100004160, symSize: 0x14 }
  - { offsetInCU: 0x1DFA5, offset: 0x1DFA5, size: 0x8, addend: 0x0, symName: __ZNSt3__16vectorI5StateNS_9allocatorIS1_EEED2B8ue170006Ev, symObjAddr: 0x2204, symBinAddr: 0x100004174, symSize: 0x44 }
  - { offsetInCU: 0x1DFCF, offset: 0x1DFCF, size: 0x8, addend: 0x0, symName: __ZNSt3__16vectorI5StateNS_9allocatorIS1_EEE16__destroy_vectorC1B8ue170006ERS4_, symObjAddr: 0x2248, symBinAddr: 0x1000041B8, symSize: 0x34 }
  - { offsetInCU: 0x1E008, offset: 0x1E008, size: 0x8, addend: 0x0, symName: __ZNSt3__16vectorI5StateNS_9allocatorIS1_EEE16__destroy_vectorclB8ue170006Ev, symObjAddr: 0x227C, symBinAddr: 0x1000041EC, symSize: 0x90 }
  - { offsetInCU: 0x1E02E, offset: 0x1E02E, size: 0x8, addend: 0x0, symName: __ZNSt3__16vectorI5StateNS_9allocatorIS1_EEE16__destroy_vectorC2B8ue170006ERS4_, symObjAddr: 0x230C, symBinAddr: 0x10000427C, symSize: 0x20 }
  - { offsetInCU: 0x1E067, offset: 0x1E067, size: 0x8, addend: 0x0, symName: __ZNSt3__16vectorI5StateNS_9allocatorIS1_EEE7__clearB8ue170006Ev, symObjAddr: 0x232C, symBinAddr: 0x10000429C, symSize: 0x28 }
  - { offsetInCU: 0x1E08D, offset: 0x1E08D, size: 0x8, addend: 0x0, symName: __ZNKSt3__16vectorI5StateNS_9allocatorIS1_EEE17__annotate_deleteB8ue170006Ev, symObjAddr: 0x2354, symBinAddr: 0x1000042C4, symSize: 0xB8 }
  - { offsetInCU: 0x1E0B3, offset: 0x1E0B3, size: 0x8, addend: 0x0, symName: __ZNSt3__116allocator_traitsINS_9allocatorI5StateEEE10deallocateB8ue170006ERS3_PS2_m, symObjAddr: 0x240C, symBinAddr: 0x10000437C, symSize: 0x34 }
  - { offsetInCU: 0x1E0F5, offset: 0x1E0F5, size: 0x8, addend: 0x0, symName: __ZNSt3__16vectorI5StateNS_9allocatorIS1_EEE7__allocB8ue170006Ev, symObjAddr: 0x2440, symBinAddr: 0x1000043B0, symSize: 0x28 }
  - { offsetInCU: 0x1E11B, offset: 0x1E11B, size: 0x8, addend: 0x0, symName: __ZNKSt3__16vectorI5StateNS_9allocatorIS1_EEE8capacityB8ue170006Ev, symObjAddr: 0x2468, symBinAddr: 0x1000043D8, symSize: 0x40 }
  - { offsetInCU: 0x1E141, offset: 0x1E141, size: 0x8, addend: 0x0, symName: __ZNSt3__16vectorI5StateNS_9allocatorIS1_EEE22__base_destruct_at_endB8ue170006EPS1_, symObjAddr: 0x24A8, symBinAddr: 0x100004418, symSize: 0x8C }
  - { offsetInCU: 0x1E185, offset: 0x1E185, size: 0x8, addend: 0x0, symName: __ZNSt3__116allocator_traitsINS_9allocatorI5StateEEE7destroyB8ue170006IS2_vEEvRS3_PT_, symObjAddr: 0x2534, symBinAddr: 0x1000044A4, symSize: 0x2C }
  - { offsetInCU: 0x1E1C2, offset: 0x1E1C2, size: 0x8, addend: 0x0, symName: __ZNSt3__19allocatorI5StateE7destroyB8ue170006EPS1_, symObjAddr: 0x2574, symBinAddr: 0x1000044E4, symSize: 0x14 }
  - { offsetInCU: 0x1E1F6, offset: 0x1E1F6, size: 0x8, addend: 0x0, symName: __ZNKSt3__16vectorI5StateNS_9allocatorIS1_EEE31__annotate_contiguous_containerB8ue170006EPKvS6_S6_S6_, symObjAddr: 0x2588, symBinAddr: 0x1000044F8, symSize: 0x20 }
  - { offsetInCU: 0x1E248, offset: 0x1E248, size: 0x8, addend: 0x0, symName: __ZNKSt3__16vectorI5StateNS_9allocatorIS1_EEE4dataB8ue170006Ev, symObjAddr: 0x25A8, symBinAddr: 0x100004518, symSize: 0x28 }
  - { offsetInCU: 0x1E26E, offset: 0x1E26E, size: 0x8, addend: 0x0, symName: __ZNSt3__19allocatorI5StateE10deallocateB8ue170006EPS1_m, symObjAddr: 0x25D0, symBinAddr: 0x100004540, symSize: 0x40 }
  - { offsetInCU: 0x1E2B0, offset: 0x1E2B0, size: 0x8, addend: 0x0, symName: __ZNSt3__117__compressed_pairIP5StateNS_9allocatorIS1_EEE6secondB8ue170006Ev, symObjAddr: 0x2738, symBinAddr: 0x1000046A8, symSize: 0x24 }
  - { offsetInCU: 0x1E2D6, offset: 0x1E2D6, size: 0x8, addend: 0x0, symName: __ZNSt3__122__compressed_pair_elemINS_9allocatorI5StateEELi1ELb1EE5__getB8ue170006Ev, symObjAddr: 0x275C, symBinAddr: 0x1000046CC, symSize: 0x14 }
  - { offsetInCU: 0x1E2FC, offset: 0x1E2FC, size: 0x8, addend: 0x0, symName: __ZNKSt3__16vectorI5StateNS_9allocatorIS1_EEE9__end_capB8ue170006Ev, symObjAddr: 0x2770, symBinAddr: 0x1000046E0, symSize: 0x28 }
  - { offsetInCU: 0x1E322, offset: 0x1E322, size: 0x8, addend: 0x0, symName: __ZNKSt3__117__compressed_pairIP5StateNS_9allocatorIS1_EEE5firstB8ue170006Ev, symObjAddr: 0x2798, symBinAddr: 0x100004708, symSize: 0x24 }
  - { offsetInCU: 0x1E348, offset: 0x1E348, size: 0x8, addend: 0x0, symName: __ZNKSt3__122__compressed_pair_elemIP5StateLi0ELb0EE5__getB8ue170006Ev, symObjAddr: 0x27BC, symBinAddr: 0x10000472C, symSize: 0x14 }
  - { offsetInCU: 0x1E38F, offset: 0x1E38F, size: 0x8, addend: 0x0, symName: __ZNKSt3__113basic_istreamIcNS_11char_traitsIcEEE6sentrycvbB8ue170006Ev, symObjAddr: 0x27D0, symBinAddr: 0x100004740, symSize: 0x1C }
  - { offsetInCU: 0x1E3B5, offset: 0x1E3B5, size: 0x8, addend: 0x0, symName: __ZNKSt3__19basic_iosIcNS_11char_traitsIcEEE5rdbufB8ue170006Ev, symObjAddr: 0x27EC, symBinAddr: 0x10000475C, symSize: 0x24 }
  - { offsetInCU: 0x1E3DD, offset: 0x1E3DD, size: 0x8, addend: 0x0, symName: __ZNSt3__115basic_streambufIcNS_11char_traitsIcEEE6sbumpcB8ue170006Ev, symObjAddr: 0x2810, symBinAddr: 0x100004780, symSize: 0x78 }
  - { offsetInCU: 0x1E403, offset: 0x1E403, size: 0x8, addend: 0x0, symName: __ZNSt3__111char_traitsIcE11eq_int_typeB8ue170006Eii, symObjAddr: 0x2888, symBinAddr: 0x1000047F8, symSize: 0x28 }
  - { offsetInCU: 0x1E436, offset: 0x1E436, size: 0x8, addend: 0x0, symName: __ZNSt3__111char_traitsIcE12to_char_typeB8ue170006Ei, symObjAddr: 0x28B0, symBinAddr: 0x100004820, symSize: 0x18 }
  - { offsetInCU: 0x1E459, offset: 0x1E459, size: 0x8, addend: 0x0, symName: __ZNSt3__18ios_base18__setstate_nothrowB8ue170006Ej, symObjAddr: 0x28C8, symBinAddr: 0x100004838, symSize: 0x64 }
  - { offsetInCU: 0x1E48E, offset: 0x1E48E, size: 0x8, addend: 0x0, symName: __ZNKSt3__19basic_iosIcNS_11char_traitsIcEEE10exceptionsB8ue170006Ev, symObjAddr: 0x292C, symBinAddr: 0x10000489C, symSize: 0x24 }
  - { offsetInCU: 0x1E4B4, offset: 0x1E4B4, size: 0x8, addend: 0x0, symName: __ZNSt3__19basic_iosIcNS_11char_traitsIcEEE8setstateB8ue170006Ej, symObjAddr: 0x2950, symBinAddr: 0x1000048C0, symSize: 0x2C }
  - { offsetInCU: 0x1E4E9, offset: 0x1E4E9, size: 0x8, addend: 0x0, symName: __ZNKSt3__18ios_base5rdbufB8ue170006Ev, symObjAddr: 0x297C, symBinAddr: 0x1000048EC, symSize: 0x18 }
  - { offsetInCU: 0x1E50F, offset: 0x1E50F, size: 0x8, addend: 0x0, symName: __ZNSt3__111char_traitsIcE11to_int_typeB8ue170006Ec, symObjAddr: 0x2994, symBinAddr: 0x100004904, symSize: 0x14 }
  - { offsetInCU: 0x1E533, offset: 0x1E533, size: 0x8, addend: 0x0, symName: __ZNKSt3__18ios_base10exceptionsB8ue170006Ev, symObjAddr: 0x29A8, symBinAddr: 0x100004918, symSize: 0x18 }
  - { offsetInCU: 0x1E55B, offset: 0x1E55B, size: 0x8, addend: 0x0, symName: __ZNSt3__18ios_base8setstateB8ue170006Ej, symObjAddr: 0x29C0, symBinAddr: 0x100004930, symSize: 0x34 }
  - { offsetInCU: 0x1E592, offset: 0x1E592, size: 0x8, addend: 0x0, symName: __ZNKSt3__19basic_iosIcNS_11char_traitsIcEEE4failB8ue170006Ev, symObjAddr: 0x29F4, symBinAddr: 0x100004964, symSize: 0x28 }
  - { offsetInCU: 0x1E5B8, offset: 0x1E5B8, size: 0x8, addend: 0x0, symName: __ZNKSt3__18ios_base4failB8ue170006Ev, symObjAddr: 0x2A1C, symBinAddr: 0x10000498C, symSize: 0x28 }
  - { offsetInCU: 0x1E5E0, offset: 0x1E5E0, size: 0x8, addend: 0x0, symName: __ZNSt3__16vectorI5StateNS_9allocatorIS1_EEE9__end_capB8ue170006Ev, symObjAddr: 0x2A44, symBinAddr: 0x1000049B4, symSize: 0x28 }
  - { offsetInCU: 0x1E60C, offset: 0x1E60C, size: 0x8, addend: 0x0, symName: __ZNSt3__16vectorI5StateNS_9allocatorIS1_EEE22__construct_one_at_endB8ue170006IJS1_EEEvDpOT_, symObjAddr: 0x2A6C, symBinAddr: 0x1000049DC, symSize: 0x90 }
  - { offsetInCU: 0x1E65B, offset: 0x1E65B, size: 0x8, addend: 0x0, symName: __ZNSt3__16vectorI5StateNS_9allocatorIS1_EEE21__push_back_slow_pathIS1_EEvOT_, symObjAddr: 0x2AFC, symBinAddr: 0x100004A6C, symSize: 0xD8 }
  - { offsetInCU: 0x1E6B9, offset: 0x1E6B9, size: 0x8, addend: 0x0, symName: __ZNSt3__117__compressed_pairIP5StateNS_9allocatorIS1_EEE5firstB8ue170006Ev, symObjAddr: 0x2BD4, symBinAddr: 0x100004B44, symSize: 0x24 }
  - { offsetInCU: 0x1E6DF, offset: 0x1E6DF, size: 0x8, addend: 0x0, symName: __ZNSt3__122__compressed_pair_elemIP5StateLi0ELb0EE5__getB8ue170006Ev, symObjAddr: 0x2BF8, symBinAddr: 0x100004B68, symSize: 0x14 }
  - { offsetInCU: 0x1E720, offset: 0x1E720, size: 0x8, addend: 0x0, symName: __ZNSt3__16vectorI5StateNS_9allocatorIS1_EEE21_ConstructTransactionC1B8ue170006ERS4_m, symObjAddr: 0x2C0C, symBinAddr: 0x100004B7C, symSize: 0x3C }
  - { offsetInCU: 0x1E768, offset: 0x1E768, size: 0x8, addend: 0x0, symName: __ZNSt3__116allocator_traitsINS_9allocatorI5StateEEE9constructB8ue170006IS2_JS2_EvEEvRS3_PT_DpOT0_, symObjAddr: 0x2C48, symBinAddr: 0x100004BB8, symSize: 0x34 }
  - { offsetInCU: 0x1E7BF, offset: 0x1E7BF, size: 0x8, addend: 0x0, symName: __ZNSt3__16vectorI5StateNS_9allocatorIS1_EEE21_ConstructTransactionD1B8ue170006Ev, symObjAddr: 0x2C7C, symBinAddr: 0x100004BEC, symSize: 0x2C }
  - { offsetInCU: 0x1E7E9, offset: 0x1E7E9, size: 0x8, addend: 0x0, symName: __ZNSt3__16vectorI5StateNS_9allocatorIS1_EEE21_ConstructTransactionC2B8ue170006ERS4_m, symObjAddr: 0x2CA8, symBinAddr: 0x100004C18, symSize: 0x44 }
  - { offsetInCU: 0x1E831, offset: 0x1E831, size: 0x8, addend: 0x0, symName: __ZNSt3__19allocatorI5StateE9constructB8ue170006IS1_JS1_EEEvPT_DpOT0_, symObjAddr: 0x2CEC, symBinAddr: 0x100004C5C, symSize: 0x28 }
  - { offsetInCU: 0x1E887, offset: 0x1E887, size: 0x8, addend: 0x0, symName: __ZNSt3__16vectorI5StateNS_9allocatorIS1_EEE21_ConstructTransactionD2B8ue170006Ev, symObjAddr: 0x2D14, symBinAddr: 0x100004C84, symSize: 0x20 }
  - { offsetInCU: 0x1E8B1, offset: 0x1E8B1, size: 0x8, addend: 0x0, symName: __ZNKSt3__16vectorI5StateNS_9allocatorIS1_EEE11__recommendB8ue170006Em, symObjAddr: 0x2D34, symBinAddr: 0x100004CA4, symSize: 0xB4 }
  - { offsetInCU: 0x1E906, offset: 0x1E906, size: 0x8, addend: 0x0, symName: __ZNSt3__114__split_bufferI5StateRNS_9allocatorIS1_EEEC1EmmS4_, symObjAddr: 0x2DE8, symBinAddr: 0x100004D58, symSize: 0x44 }
  - { offsetInCU: 0x1E95C, offset: 0x1E95C, size: 0x8, addend: 0x0, symName: __ZNSt3__114__split_bufferI5StateRNS_9allocatorIS1_EEED1Ev, symObjAddr: 0x2F3C, symBinAddr: 0x100004EAC, symSize: 0x2C }
  - { offsetInCU: 0x1E988, offset: 0x1E988, size: 0x8, addend: 0x0, symName: __ZNKSt3__16vectorI5StateNS_9allocatorIS1_EEE8max_sizeEv, symObjAddr: 0x2F68, symBinAddr: 0x100004ED8, symSize: 0x60 }
  - { offsetInCU: 0x1E9B0, offset: 0x1E9B0, size: 0x8, addend: 0x0, symName: __ZNKSt3__16vectorI5StateNS_9allocatorIS1_EEE20__throw_length_errorB8ue170006Ev, symObjAddr: 0x2FC8, symBinAddr: 0x100004F38, symSize: 0x1C }
  - { offsetInCU: 0x1E9E1, offset: 0x1E9E1, size: 0x8, addend: 0x0, symName: __ZNSt3__116allocator_traitsINS_9allocatorI5StateEEE8max_sizeB8ue170006IS3_vEEmRKS3_, symObjAddr: 0x303C, symBinAddr: 0x100004FAC, symSize: 0x24 }
  - { offsetInCU: 0x1EA0F, offset: 0x1EA0F, size: 0x8, addend: 0x0, symName: __ZNKSt3__16vectorI5StateNS_9allocatorIS1_EEE7__allocB8ue170006Ev, symObjAddr: 0x3060, symBinAddr: 0x100004FD0, symSize: 0x28 }
  - { offsetInCU: 0x1EA35, offset: 0x1EA35, size: 0x8, addend: 0x0, symName: __ZNSt3__114numeric_limitsIlE3maxB8ue170006Ev, symObjAddr: 0x3088, symBinAddr: 0x100004FF8, symSize: 0x14 }
  - { offsetInCU: 0x1EA5E, offset: 0x1EA5E, size: 0x8, addend: 0x0, symName: __ZNKSt3__16__lessIvvEclB8ue170006ImmEEbRKT_RKT0_, symObjAddr: 0x30F0, symBinAddr: 0x100005060, symSize: 0x34 }
  - { offsetInCU: 0x1EAB2, offset: 0x1EAB2, size: 0x8, addend: 0x0, symName: __ZNKSt3__19allocatorI5StateE8max_sizeB8ue170006Ev, symObjAddr: 0x3124, symBinAddr: 0x100005094, symSize: 0x14 }
  - { offsetInCU: 0x1EAD8, offset: 0x1EAD8, size: 0x8, addend: 0x0, symName: __ZNKSt3__117__compressed_pairIP5StateNS_9allocatorIS1_EEE6secondB8ue170006Ev, symObjAddr: 0x3138, symBinAddr: 0x1000050A8, symSize: 0x24 }
  - { offsetInCU: 0x1EAFE, offset: 0x1EAFE, size: 0x8, addend: 0x0, symName: __ZNKSt3__122__compressed_pair_elemINS_9allocatorI5StateEELi1ELb1EE5__getB8ue170006Ev, symObjAddr: 0x315C, symBinAddr: 0x1000050CC, symSize: 0x14 }
  - { offsetInCU: 0x1EB24, offset: 0x1EB24, size: 0x8, addend: 0x0, symName: __ZNSt3__123__libcpp_numeric_limitsIlLb1EE3maxB8ue170006Ev, symObjAddr: 0x3170, symBinAddr: 0x1000050E0, symSize: 0x8 }
  - { offsetInCU: 0x1EB38, offset: 0x1EB38, size: 0x8, addend: 0x0, symName: __ZNSt12length_errorC1B8ue170006EPKc, symObjAddr: 0x31DC, symBinAddr: 0x10000514C, symSize: 0x34 }
  - { offsetInCU: 0x1EB70, offset: 0x1EB70, size: 0x8, addend: 0x0, symName: __ZNSt12length_errorC2B8ue170006EPKc, symObjAddr: 0x3210, symBinAddr: 0x100005180, symSize: 0x4C }
  - { offsetInCU: 0x1EBA8, offset: 0x1EBA8, size: 0x8, addend: 0x0, symName: __ZNSt3__114__split_bufferI5StateRNS_9allocatorIS1_EEEC2EmmS4_, symObjAddr: 0x32B0, symBinAddr: 0x100005220, symSize: 0xD4 }
  - { offsetInCU: 0x1EC1B, offset: 0x1EC1B, size: 0x8, addend: 0x0, symName: __ZNSt3__117__compressed_pairIP5StateRNS_9allocatorIS1_EEEC1B8ue170006IDnS5_EEOT_OT0_, symObjAddr: 0x3384, symBinAddr: 0x1000052F4, symSize: 0x3C }
  - { offsetInCU: 0x1EC73, offset: 0x1EC73, size: 0x8, addend: 0x0, symName: __ZNSt3__114__split_bufferI5StateRNS_9allocatorIS1_EEE7__allocB8ue170006Ev, symObjAddr: 0x3400, symBinAddr: 0x100005370, symSize: 0x28 }
  - { offsetInCU: 0x1EC99, offset: 0x1EC99, size: 0x8, addend: 0x0, symName: __ZNSt3__114__split_bufferI5StateRNS_9allocatorIS1_EEE9__end_capB8ue170006Ev, symObjAddr: 0x3428, symBinAddr: 0x100005398, symSize: 0x28 }
  - { offsetInCU: 0x1ECBF, offset: 0x1ECBF, size: 0x8, addend: 0x0, symName: __ZNSt3__117__compressed_pairIP5StateRNS_9allocatorIS1_EEEC2B8ue170006IDnS5_EEOT_OT0_, symObjAddr: 0x3450, symBinAddr: 0x1000053C0, symSize: 0x48 }
  - { offsetInCU: 0x1ED17, offset: 0x1ED17, size: 0x8, addend: 0x0, symName: __ZNSt3__122__compressed_pair_elemIRNS_9allocatorI5StateEELi1ELb0EEC2B8ue170006IS4_vEEOT_, symObjAddr: 0x3498, symBinAddr: 0x100005408, symSize: 0x20 }
  - { offsetInCU: 0x1ED59, offset: 0x1ED59, size: 0x8, addend: 0x0, symName: __ZNSt3__19allocatorI5StateE8allocateB8ue170006Em, symObjAddr: 0x34B8, symBinAddr: 0x100005428, symSize: 0x58 }
  - { offsetInCU: 0x1ED8D, offset: 0x1ED8D, size: 0x8, addend: 0x0, symName: __ZNSt3__117__compressed_pairIP5StateRNS_9allocatorIS1_EEE6secondB8ue170006Ev, symObjAddr: 0x35F4, symBinAddr: 0x100005564, symSize: 0x28 }
  - { offsetInCU: 0x1EDB3, offset: 0x1EDB3, size: 0x8, addend: 0x0, symName: __ZNSt3__122__compressed_pair_elemIRNS_9allocatorI5StateEELi1ELb0EE5__getB8ue170006Ev, symObjAddr: 0x361C, symBinAddr: 0x10000558C, symSize: 0x18 }
  - { offsetInCU: 0x1EDD9, offset: 0x1EDD9, size: 0x8, addend: 0x0, symName: __ZNSt3__117__compressed_pairIP5StateRNS_9allocatorIS1_EEE5firstB8ue170006Ev, symObjAddr: 0x3634, symBinAddr: 0x1000055A4, symSize: 0x24 }
  - { offsetInCU: 0x1EDFF, offset: 0x1EDFF, size: 0x8, addend: 0x0, symName: __ZNSt3__116reverse_iteratorIP5StateEC1B8ue170006ES2_, symObjAddr: 0x36D0, symBinAddr: 0x100005640, symSize: 0x34 }
  - { offsetInCU: 0x1EE37, offset: 0x1EE37, size: 0x8, addend: 0x0, symName: __ZNKSt3__116reverse_iteratorIP5StateE4baseB8ue170006Ev, symObjAddr: 0x3704, symBinAddr: 0x100005674, symSize: 0x18 }
  - { offsetInCU: 0x1EE5D, offset: 0x1EE5D, size: 0x8, addend: 0x0, symName: __ZNKSt3__16vectorI5StateNS_9allocatorIS1_EEE14__annotate_newB8ue170006Em, symObjAddr: 0x3758, symBinAddr: 0x1000056C8, symSize: 0xAC }
  - { offsetInCU: 0x1EEB8, offset: 0x1EEB8, size: 0x8, addend: 0x0, symName: __ZNKSt3__111__move_loopINS_17_ClassicAlgPolicyEEclB8ue170006INS_16reverse_iteratorIP5StateEES7_S7_EENS_4pairIT_T1_EES9_T0_SA_, symObjAddr: 0x3AF4, symBinAddr: 0x100005A64, symSize: 0xA0 }
  - { offsetInCU: 0x1EF23, offset: 0x1EF23, size: 0x8, addend: 0x0, symName: __ZNSt3__18_IterOpsINS_17_ClassicAlgPolicyEE11__iter_moveB8ue170006IRNS_16reverse_iteratorIP5StateEEEENS_9enable_ifIXsr12is_referenceIDTdeclsr3stdE7declvalIRT_EEEEE5valueEDTclsr3stdE4movedeclsr3stdE7declvalISB_EEEEE4typeEOSA_, symObjAddr: 0x3D28, symBinAddr: 0x100005C98, symSize: 0x28 }
  - { offsetInCU: 0x1EF4F, offset: 0x1EF4F, size: 0x8, addend: 0x0, symName: __ZNKSt3__116reverse_iteratorIP5StateEdeB8ue170006Ev, symObjAddr: 0x3D50, symBinAddr: 0x100005CC0, symSize: 0x28 }
  - { offsetInCU: 0x1EF83, offset: 0x1EF83, size: 0x8, addend: 0x0, symName: __ZNSt3__116reverse_iteratorIP5StateEppB8ue170006Ev, symObjAddr: 0x3D78, symBinAddr: 0x100005CE8, symSize: 0x20 }
  - { offsetInCU: 0x1EFA9, offset: 0x1EFA9, size: 0x8, addend: 0x0, symName: __ZNSt3__18_IterOpsINS_17_ClassicAlgPolicyEE25__validate_iter_referenceB8ue170006IRNS_16reverse_iteratorIP5StateEEEEvv, symObjAddr: 0x3D98, symBinAddr: 0x100005D08, symSize: 0x4 }
  - { offsetInCU: 0x1EFC7, offset: 0x1EFC7, size: 0x8, addend: 0x0, symName: __ZNSt3__118__unwrap_iter_implINS_16reverse_iteratorIP5StateEELb0EE8__unwrapB8ue170006ES4_, symObjAddr: 0x3D9C, symBinAddr: 0x100005D0C, symSize: 0x24 }
  - { offsetInCU: 0x1EFF0, offset: 0x1EFF0, size: 0x8, addend: 0x0, symName: __ZNSt3__14pairINS_16reverse_iteratorIP5StateEES4_EC1B8ue170006IS4_S4_LPv0EEEOT_OT0_, symObjAddr: 0x3DC0, symBinAddr: 0x100005D30, symSize: 0x3C }
  - { offsetInCU: 0x1F04E, offset: 0x1F04E, size: 0x8, addend: 0x0, symName: __ZNSt3__14pairINS_16reverse_iteratorIP5StateEES4_EC2B8ue170006IS4_S4_LPv0EEEOT_OT0_, symObjAddr: 0x3DFC, symBinAddr: 0x100005D6C, symSize: 0x34 }
  - { offsetInCU: 0x1F0AC, offset: 0x1F0AC, size: 0x8, addend: 0x0, symName: __ZNSt3__118__unwrap_iter_implINS_16reverse_iteratorIP5StateEELb0EE8__rewrapB8ue170006ES4_S4_, symObjAddr: 0x3E30, symBinAddr: 0x100005DA0, symSize: 0x2C }
  - { offsetInCU: 0x1F0D9, offset: 0x1F0D9, size: 0x8, addend: 0x0, symName: __ZNSt3__116reverse_iteratorIP5StateEC2B8ue170006ES2_, symObjAddr: 0x3E5C, symBinAddr: 0x100005DCC, symSize: 0x28 }
  - { offsetInCU: 0x1F111, offset: 0x1F111, size: 0x8, addend: 0x0, symName: __ZNSt3__114__split_bufferI5StateRNS_9allocatorIS1_EEED2Ev, symObjAddr: 0x3E84, symBinAddr: 0x100005DF4, symSize: 0x8C }
  - { offsetInCU: 0x1F13D, offset: 0x1F13D, size: 0x8, addend: 0x0, symName: __ZNSt3__114__split_bufferI5StateRNS_9allocatorIS1_EEE5clearB8ue170006Ev, symObjAddr: 0x3F10, symBinAddr: 0x100005E80, symSize: 0x28 }
  - { offsetInCU: 0x1F163, offset: 0x1F163, size: 0x8, addend: 0x0, symName: __ZNKSt3__114__split_bufferI5StateRNS_9allocatorIS1_EEE8capacityB8ue170006Ev, symObjAddr: 0x3F38, symBinAddr: 0x100005EA8, symSize: 0x40 }
  - { offsetInCU: 0x1F189, offset: 0x1F189, size: 0x8, addend: 0x0, symName: __ZNSt3__114__split_bufferI5StateRNS_9allocatorIS1_EEE17__destruct_at_endB8ue170006EPS1_, symObjAddr: 0x3F78, symBinAddr: 0x100005EE8, symSize: 0x2C }
  - { offsetInCU: 0x1F1BD, offset: 0x1F1BD, size: 0x8, addend: 0x0, symName: __ZNSt3__114__split_bufferI5StateRNS_9allocatorIS1_EEE17__destruct_at_endB8ue170006EPS1_NS_17integral_constantIbLb0EEE, symObjAddr: 0x3FA4, symBinAddr: 0x100005F14, symSize: 0x80 }
  - { offsetInCU: 0x1F1FD, offset: 0x1F1FD, size: 0x8, addend: 0x0, symName: __ZNKSt3__114__split_bufferI5StateRNS_9allocatorIS1_EEE9__end_capB8ue170006Ev, symObjAddr: 0x4024, symBinAddr: 0x100005F94, symSize: 0x28 }
  - { offsetInCU: 0x1F223, offset: 0x1F223, size: 0x8, addend: 0x0, symName: __ZNKSt3__117__compressed_pairIP5StateRNS_9allocatorIS1_EEE5firstB8ue170006Ev, symObjAddr: 0x404C, symBinAddr: 0x100005FBC, symSize: 0x24 }
  - { offsetInCU: 0x1F249, offset: 0x1F249, size: 0x8, addend: 0x0, symName: __ZNSt3__113basic_filebufIcNS_11char_traitsIcEEE4openERKNS_12basic_stringIcS2_NS_9allocatorIcEEEEj, symObjAddr: 0x4070, symBinAddr: 0x100005FE0, symSize: 0x44 }
  - { offsetInCU: 0x1F28D, offset: 0x1F28D, size: 0x8, addend: 0x0, symName: __ZNKSt3__112basic_stringIcNS_11char_traitsIcEENS_9allocatorIcEEE5c_strB8ue170006Ev, symObjAddr: 0x40B4, symBinAddr: 0x100006024, symSize: 0x24 }
  - { offsetInCU: 0x1F2B3, offset: 0x1F2B3, size: 0x8, addend: 0x0, symName: __ZNKSt3__112basic_stringIcNS_11char_traitsIcEENS_9allocatorIcEEE4dataB8ue170006Ev, symObjAddr: 0x40D8, symBinAddr: 0x100006048, symSize: 0x28 }
  - { offsetInCU: 0x1F2D9, offset: 0x1F2D9, size: 0x8, addend: 0x0, symName: __ZNKSt3__112basic_stringIcNS_11char_traitsIcEENS_9allocatorIcEEE13__get_pointerB8ue170006Ev, symObjAddr: 0x4114, symBinAddr: 0x100006084, symSize: 0x54 }
  - { offsetInCU: 0x1F2FF, offset: 0x1F2FF, size: 0x8, addend: 0x0, symName: __ZNKSt3__112basic_stringIcNS_11char_traitsIcEENS_9allocatorIcEEE9__is_longB8ue170006Ev, symObjAddr: 0x4168, symBinAddr: 0x1000060D8, symSize: 0x38 }
  - { offsetInCU: 0x1F325, offset: 0x1F325, size: 0x8, addend: 0x0, symName: __ZNKSt3__112basic_stringIcNS_11char_traitsIcEENS_9allocatorIcEEE18__get_long_pointerB8ue170006Ev, symObjAddr: 0x41A0, symBinAddr: 0x100006110, symSize: 0x28 }
  - { offsetInCU: 0x1F34B, offset: 0x1F34B, size: 0x8, addend: 0x0, symName: __ZNKSt3__112basic_stringIcNS_11char_traitsIcEENS_9allocatorIcEEE19__get_short_pointerB8ue170006Ev, symObjAddr: 0x41C8, symBinAddr: 0x100006138, symSize: 0x28 }
  - { offsetInCU: 0x1F371, offset: 0x1F371, size: 0x8, addend: 0x0, symName: __ZNKSt3__117__compressed_pairINS_12basic_stringIcNS_11char_traitsIcEENS_9allocatorIcEEE5__repES5_E5firstB8ue170006Ev, symObjAddr: 0x41F0, symBinAddr: 0x100006160, symSize: 0x24 }
  - { offsetInCU: 0x1F397, offset: 0x1F397, size: 0x8, addend: 0x0, symName: __ZNKSt3__122__compressed_pair_elemINS_12basic_stringIcNS_11char_traitsIcEENS_9allocatorIcEEE5__repELi0ELb0EE5__getB8ue170006Ev, symObjAddr: 0x4214, symBinAddr: 0x100006184, symSize: 0x14 }
  - { offsetInCU: 0x1F3BD, offset: 0x1F3BD, size: 0x8, addend: 0x0, symName: __ZNSt3__114pointer_traitsIPKcE10pointer_toB8ue170006ERS1_, symObjAddr: 0x4228, symBinAddr: 0x100006198, symSize: 0x14 }
  - { offsetInCU: 0x1F3E0, offset: 0x1F3E0, size: 0x8, addend: 0x0, symName: __ZNSt3__16vectorINS0_I5StateNS_9allocatorIS1_EEEENS2_IS4_EEEC2B8ue170006Ev, symObjAddr: 0x423C, symBinAddr: 0x1000061AC, symSize: 0x4C }
  - { offsetInCU: 0x1F40A, offset: 0x1F40A, size: 0x8, addend: 0x0, symName: __ZNSt3__117__compressed_pairIPNS_6vectorI5StateNS_9allocatorIS2_EEEENS3_IS5_EEEC1B8ue170006IDnNS_18__default_init_tagEEEOT_OT0_, symObjAddr: 0x4288, symBinAddr: 0x1000061F8, symSize: 0x3C }
  - { offsetInCU: 0x1F462, offset: 0x1F462, size: 0x8, addend: 0x0, symName: __ZNSt3__117__compressed_pairIPNS_6vectorI5StateNS_9allocatorIS2_EEEENS3_IS5_EEEC2B8ue170006IDnNS_18__default_init_tagEEEOT_OT0_, symObjAddr: 0x42C4, symBinAddr: 0x100006234, symSize: 0x40 }
  - { offsetInCU: 0x1F4BA, offset: 0x1F4BA, size: 0x8, addend: 0x0, symName: __ZNSt3__122__compressed_pair_elemIPNS_6vectorI5StateNS_9allocatorIS2_EEEELi0ELb0EEC2B8ue170006IDnvEEOT_, symObjAddr: 0x4304, symBinAddr: 0x100006274, symSize: 0x1C }
  - { offsetInCU: 0x1F4FC, offset: 0x1F4FC, size: 0x8, addend: 0x0, symName: __ZNSt3__122__compressed_pair_elemINS_9allocatorINS_6vectorI5StateNS1_IS3_EEEEEELi1ELb1EEC2B8ue170006ENS_18__default_init_tagE, symObjAddr: 0x4320, symBinAddr: 0x100006290, symSize: 0x2C }
  - { offsetInCU: 0x1F530, offset: 0x1F530, size: 0x8, addend: 0x0, symName: __ZNSt3__19allocatorINS_6vectorI5StateNS0_IS2_EEEEEC2B8ue170006Ev, symObjAddr: 0x434C, symBinAddr: 0x1000062BC, symSize: 0x2C }
  - { offsetInCU: 0x1F55A, offset: 0x1F55A, size: 0x8, addend: 0x0, symName: __ZNSt3__116__non_trivial_ifILb1ENS_9allocatorINS_6vectorI5StateNS1_IS3_EEEEEEEC2B8ue170006Ev, symObjAddr: 0x4378, symBinAddr: 0x1000062E8, symSize: 0x14 }
  - { offsetInCU: 0x1F584, offset: 0x1F584, size: 0x8, addend: 0x0, symName: __ZNSt3__16vectorINS0_I5StateNS_9allocatorIS1_EEEENS2_IS4_EEED2B8ue170006Ev, symObjAddr: 0x438C, symBinAddr: 0x1000062FC, symSize: 0x44 }
  - { offsetInCU: 0x1F5AE, offset: 0x1F5AE, size: 0x8, addend: 0x0, symName: __ZNSt3__16vectorINS0_I5StateNS_9allocatorIS1_EEEENS2_IS4_EEE16__destroy_vectorC1B8ue170006ERS6_, symObjAddr: 0x43D0, symBinAddr: 0x100006340, symSize: 0x34 }
  - { offsetInCU: 0x1F5E7, offset: 0x1F5E7, size: 0x8, addend: 0x0, symName: __ZNSt3__16vectorINS0_I5StateNS_9allocatorIS1_EEEENS2_IS4_EEE16__destroy_vectorclB8ue170006Ev, symObjAddr: 0x4404, symBinAddr: 0x100006374, symSize: 0x90 }
  - { offsetInCU: 0x1F60D, offset: 0x1F60D, size: 0x8, addend: 0x0, symName: __ZNSt3__16vectorINS0_I5StateNS_9allocatorIS1_EEEENS2_IS4_EEE16__destroy_vectorC2B8ue170006ERS6_, symObjAddr: 0x4494, symBinAddr: 0x100006404, symSize: 0x20 }
  - { offsetInCU: 0x1F646, offset: 0x1F646, size: 0x8, addend: 0x0, symName: __ZNSt3__16vectorINS0_I5StateNS_9allocatorIS1_EEEENS2_IS4_EEE7__clearB8ue170006Ev, symObjAddr: 0x44B4, symBinAddr: 0x100006424, symSize: 0x28 }
  - { offsetInCU: 0x1F66C, offset: 0x1F66C, size: 0x8, addend: 0x0, symName: __ZNKSt3__16vectorINS0_I5StateNS_9allocatorIS1_EEEENS2_IS4_EEE17__annotate_deleteB8ue170006Ev, symObjAddr: 0x44DC, symBinAddr: 0x10000644C, symSize: 0xD4 }
  - { offsetInCU: 0x1F692, offset: 0x1F692, size: 0x8, addend: 0x0, symName: __ZNSt3__116allocator_traitsINS_9allocatorINS_6vectorI5StateNS1_IS3_EEEEEEE10deallocateB8ue170006ERS6_PS5_m, symObjAddr: 0x45B0, symBinAddr: 0x100006520, symSize: 0x34 }
  - { offsetInCU: 0x1F6D4, offset: 0x1F6D4, size: 0x8, addend: 0x0, symName: __ZNSt3__16vectorINS0_I5StateNS_9allocatorIS1_EEEENS2_IS4_EEE7__allocB8ue170006Ev, symObjAddr: 0x45E4, symBinAddr: 0x100006554, symSize: 0x28 }
  - { offsetInCU: 0x1F6FA, offset: 0x1F6FA, size: 0x8, addend: 0x0, symName: __ZNKSt3__16vectorINS0_I5StateNS_9allocatorIS1_EEEENS2_IS4_EEE8capacityB8ue170006Ev, symObjAddr: 0x460C, symBinAddr: 0x10000657C, symSize: 0x40 }
  - { offsetInCU: 0x1F720, offset: 0x1F720, size: 0x8, addend: 0x0, symName: __ZNSt3__16vectorINS0_I5StateNS_9allocatorIS1_EEEENS2_IS4_EEE22__base_destruct_at_endB8ue170006EPS4_, symObjAddr: 0x464C, symBinAddr: 0x1000065BC, symSize: 0x8C }
  - { offsetInCU: 0x1F764, offset: 0x1F764, size: 0x8, addend: 0x0, symName: __ZNSt3__116allocator_traitsINS_9allocatorINS_6vectorI5StateNS1_IS3_EEEEEEE7destroyB8ue170006IS5_vEEvRS6_PT_, symObjAddr: 0x46D8, symBinAddr: 0x100006648, symSize: 0x2C }
  - { offsetInCU: 0x1F7A1, offset: 0x1F7A1, size: 0x8, addend: 0x0, symName: __ZNSt3__19allocatorINS_6vectorI5StateNS0_IS2_EEEEE7destroyB8ue170006EPS4_, symObjAddr: 0x4718, symBinAddr: 0x100006688, symSize: 0x28 }
  - { offsetInCU: 0x1F7D5, offset: 0x1F7D5, size: 0x8, addend: 0x0, symName: __ZNKSt3__16vectorINS0_I5StateNS_9allocatorIS1_EEEENS2_IS4_EEE31__annotate_contiguous_containerB8ue170006EPKvS8_S8_S8_, symObjAddr: 0x4740, symBinAddr: 0x1000066B0, symSize: 0x20 }
  - { offsetInCU: 0x1F827, offset: 0x1F827, size: 0x8, addend: 0x0, symName: __ZNKSt3__16vectorINS0_I5StateNS_9allocatorIS1_EEEENS2_IS4_EEE4dataB8ue170006Ev, symObjAddr: 0x4760, symBinAddr: 0x1000066D0, symSize: 0x28 }
  - { offsetInCU: 0x1F84D, offset: 0x1F84D, size: 0x8, addend: 0x0, symName: __ZNSt3__19allocatorINS_6vectorI5StateNS0_IS2_EEEEE10deallocateB8ue170006EPS4_m, symObjAddr: 0x4788, symBinAddr: 0x1000066F8, symSize: 0x44 }
  - { offsetInCU: 0x1F88F, offset: 0x1F88F, size: 0x8, addend: 0x0, symName: __ZNSt3__117__compressed_pairIPNS_6vectorI5StateNS_9allocatorIS2_EEEENS3_IS5_EEE6secondB8ue170006Ev, symObjAddr: 0x47CC, symBinAddr: 0x10000673C, symSize: 0x24 }
  - { offsetInCU: 0x1F8B5, offset: 0x1F8B5, size: 0x8, addend: 0x0, symName: __ZNSt3__122__compressed_pair_elemINS_9allocatorINS_6vectorI5StateNS1_IS3_EEEEEELi1ELb1EE5__getB8ue170006Ev, symObjAddr: 0x47F0, symBinAddr: 0x100006760, symSize: 0x14 }
  - { offsetInCU: 0x1F8DB, offset: 0x1F8DB, size: 0x8, addend: 0x0, symName: __ZNKSt3__16vectorINS0_I5StateNS_9allocatorIS1_EEEENS2_IS4_EEE9__end_capB8ue170006Ev, symObjAddr: 0x4804, symBinAddr: 0x100006774, symSize: 0x28 }
  - { offsetInCU: 0x1F901, offset: 0x1F901, size: 0x8, addend: 0x0, symName: __ZNKSt3__117__compressed_pairIPNS_6vectorI5StateNS_9allocatorIS2_EEEENS3_IS5_EEE5firstB8ue170006Ev, symObjAddr: 0x482C, symBinAddr: 0x10000679C, symSize: 0x24 }
  - { offsetInCU: 0x1F927, offset: 0x1F927, size: 0x8, addend: 0x0, symName: __ZNKSt3__122__compressed_pair_elemIPNS_6vectorI5StateNS_9allocatorIS2_EEEELi0ELb0EE5__getB8ue170006Ev, symObjAddr: 0x4850, symBinAddr: 0x1000067C0, symSize: 0x14 }
  - { offsetInCU: 0x1F94D, offset: 0x1F94D, size: 0x8, addend: 0x0, symName: __ZNKSt3__19basic_iosIcNS_11char_traitsIcEEE5widenB8ue170006Ec, symObjAddr: 0x4A98, symBinAddr: 0x100006A08, symSize: 0x84 }
  - { offsetInCU: 0x1F984, offset: 0x1F984, size: 0x8, addend: 0x0, symName: __ZNSt3__112basic_stringIcNS_11char_traitsIcEENS_9allocatorIcEEE5clearB8ue170006Ev, symObjAddr: 0x4B1C, symBinAddr: 0x100006A8C, symSize: 0x78 }
  - { offsetInCU: 0x1F9AC, offset: 0x1F9AC, size: 0x8, addend: 0x0, symName: __ZNSt3__111char_traitsIcE2eqEcc, symObjAddr: 0x4B94, symBinAddr: 0x100006B04, symSize: 0x28 }
  - { offsetInCU: 0x1F9DD, offset: 0x1F9DD, size: 0x8, addend: 0x0, symName: __ZNKSt3__112basic_stringIcNS_11char_traitsIcEENS_9allocatorIcEEE4sizeB8ue170006Ev, symObjAddr: 0x4BBC, symBinAddr: 0x100006B2C, symSize: 0x54 }
  - { offsetInCU: 0x1FA03, offset: 0x1FA03, size: 0x8, addend: 0x0, symName: __ZNKSt3__112basic_stringIcNS_11char_traitsIcEENS_9allocatorIcEEE8max_sizeB8ue170006Ev, symObjAddr: 0x4C10, symBinAddr: 0x100006B80, symSize: 0xAC }
  - { offsetInCU: 0x1FA55, offset: 0x1FA55, size: 0x8, addend: 0x0, symName: __ZNSt3__111char_traitsIcE6assignB8ue170006ERcRKc, symObjAddr: 0x4CBC, symBinAddr: 0x100006C2C, symSize: 0x24 }
  - { offsetInCU: 0x1FA86, offset: 0x1FA86, size: 0x8, addend: 0x0, symName: __ZNSt3__112basic_stringIcNS_11char_traitsIcEENS_9allocatorIcEEE18__get_long_pointerB8ue170006Ev, symObjAddr: 0x4CE0, symBinAddr: 0x100006C50, symSize: 0x28 }
  - { offsetInCU: 0x1FAAC, offset: 0x1FAAC, size: 0x8, addend: 0x0, symName: __ZNSt3__112basic_stringIcNS_11char_traitsIcEENS_9allocatorIcEEE15__set_long_sizeB8ue170006Em, symObjAddr: 0x4D08, symBinAddr: 0x100006C78, symSize: 0x38 }
  - { offsetInCU: 0x1FAE1, offset: 0x1FAE1, size: 0x8, addend: 0x0, symName: __ZNSt3__112basic_stringIcNS_11char_traitsIcEENS_9allocatorIcEEE19__get_short_pointerB8ue170006Ev, symObjAddr: 0x4D40, symBinAddr: 0x100006CB0, symSize: 0x28 }
  - { offsetInCU: 0x1FB07, offset: 0x1FB07, size: 0x8, addend: 0x0, symName: __ZNSt3__112basic_stringIcNS_11char_traitsIcEENS_9allocatorIcEEE16__set_short_sizeB8ue170006Em, symObjAddr: 0x4D68, symBinAddr: 0x100006CD8, symSize: 0x78 }
  - { offsetInCU: 0x1FB3C, offset: 0x1FB3C, size: 0x8, addend: 0x0, symName: __ZNSt3__114pointer_traitsIPcE10pointer_toB8ue170006ERc, symObjAddr: 0x4DE0, symBinAddr: 0x100006D50, symSize: 0x14 }
  - { offsetInCU: 0x1FB5F, offset: 0x1FB5F, size: 0x8, addend: 0x0, symName: __ZNKSt3__112basic_stringIcNS_11char_traitsIcEENS_9allocatorIcEEE15__get_long_sizeB8ue170006Ev, symObjAddr: 0x4DF4, symBinAddr: 0x100006D64, symSize: 0x28 }
  - { offsetInCU: 0x1FB85, offset: 0x1FB85, size: 0x8, addend: 0x0, symName: __ZNKSt3__112basic_stringIcNS_11char_traitsIcEENS_9allocatorIcEEE16__get_short_sizeB8ue170006Ev, symObjAddr: 0x4E1C, symBinAddr: 0x100006D8C, symSize: 0x34 }
  - { offsetInCU: 0x1FBB6, offset: 0x1FBB6, size: 0x8, addend: 0x0, symName: __ZNSt3__116allocator_traitsINS_9allocatorIcEEE8max_sizeB8ue170006IS2_vEEmRKS2_, symObjAddr: 0x4E50, symBinAddr: 0x100006DC0, symSize: 0x24 }
  - { offsetInCU: 0x1FBE4, offset: 0x1FBE4, size: 0x8, addend: 0x0, symName: __ZNSt3__114numeric_limitsImE3maxB8ue170006Ev, symObjAddr: 0x4E74, symBinAddr: 0x100006DE4, symSize: 0x14 }
  - { offsetInCU: 0x1FBF8, offset: 0x1FBF8, size: 0x8, addend: 0x0, symName: __ZNKSt3__19allocatorIcE8max_sizeB8ue170006Ev, symObjAddr: 0x4E88, symBinAddr: 0x100006DF8, symSize: 0x14 }
  - { offsetInCU: 0x1FC1E, offset: 0x1FC1E, size: 0x8, addend: 0x0, symName: __ZNSt3__123__libcpp_numeric_limitsImLb1EE3maxB8ue170006Ev, symObjAddr: 0x4E9C, symBinAddr: 0x100006E0C, symSize: 0x8 }
  - { offsetInCU: 0x1FC64, offset: 0x1FC64, size: 0x8, addend: 0x0, symName: __ZNKSt3__15ctypeIcE5widenB8ue170006Ec, symObjAddr: 0x4ED0, symBinAddr: 0x100006E40, symSize: 0x38 }
  - { offsetInCU: 0x1FC99, offset: 0x1FC99, size: 0x8, addend: 0x0, symName: __ZNSt3__16vectorINS0_I5StateNS_9allocatorIS1_EEEENS2_IS4_EEE9__end_capB8ue170006Ev, symObjAddr: 0x4F08, symBinAddr: 0x100006E78, symSize: 0x28 }
  - { offsetInCU: 0x1FCBF, offset: 0x1FCBF, size: 0x8, addend: 0x0, symName: __ZNSt3__16vectorINS0_I5StateNS_9allocatorIS1_EEEENS2_IS4_EEE22__construct_one_at_endB8ue170006IJRKS4_EEEvDpOT_, symObjAddr: 0x4F30, symBinAddr: 0x100006EA0, symSize: 0x90 }
  - { offsetInCU: 0x1FD0E, offset: 0x1FD0E, size: 0x8, addend: 0x0, symName: __ZNSt3__16vectorINS0_I5StateNS_9allocatorIS1_EEEENS2_IS4_EEE21__push_back_slow_pathIRKS4_EEvOT_, symObjAddr: 0x4FC0, symBinAddr: 0x100006F30, symSize: 0xD8 }
  - { offsetInCU: 0x1FD6C, offset: 0x1FD6C, size: 0x8, addend: 0x0, symName: __ZNSt3__117__compressed_pairIPNS_6vectorI5StateNS_9allocatorIS2_EEEENS3_IS5_EEE5firstB8ue170006Ev, symObjAddr: 0x5098, symBinAddr: 0x100007008, symSize: 0x24 }
  - { offsetInCU: 0x1FD92, offset: 0x1FD92, size: 0x8, addend: 0x0, symName: __ZNSt3__122__compressed_pair_elemIPNS_6vectorI5StateNS_9allocatorIS2_EEEELi0ELb0EE5__getB8ue170006Ev, symObjAddr: 0x50BC, symBinAddr: 0x10000702C, symSize: 0x14 }
  - { offsetInCU: 0x1FDD3, offset: 0x1FDD3, size: 0x8, addend: 0x0, symName: __ZNSt3__16vectorINS0_I5StateNS_9allocatorIS1_EEEENS2_IS4_EEE21_ConstructTransactionC1B8ue170006ERS6_m, symObjAddr: 0x50D0, symBinAddr: 0x100007040, symSize: 0x3C }
  - { offsetInCU: 0x1FE1B, offset: 0x1FE1B, size: 0x8, addend: 0x0, symName: __ZNSt3__116allocator_traitsINS_9allocatorINS_6vectorI5StateNS1_IS3_EEEEEEE9constructB8ue170006IS5_JRKS5_EvEEvRS6_PT_DpOT0_, symObjAddr: 0x510C, symBinAddr: 0x10000707C, symSize: 0x34 }
  - { offsetInCU: 0x1FE72, offset: 0x1FE72, size: 0x8, addend: 0x0, symName: __ZNSt3__16vectorINS0_I5StateNS_9allocatorIS1_EEEENS2_IS4_EEE21_ConstructTransactionD1B8ue170006Ev, symObjAddr: 0x5140, symBinAddr: 0x1000070B0, symSize: 0x2C }
  - { offsetInCU: 0x1FE9C, offset: 0x1FE9C, size: 0x8, addend: 0x0, symName: __ZNSt3__16vectorINS0_I5StateNS_9allocatorIS1_EEEENS2_IS4_EEE21_ConstructTransactionC2B8ue170006ERS6_m, symObjAddr: 0x516C, symBinAddr: 0x1000070DC, symSize: 0x4C }
  - { offsetInCU: 0x1FEE4, offset: 0x1FEE4, size: 0x8, addend: 0x0, symName: __ZNSt3__19allocatorINS_6vectorI5StateNS0_IS2_EEEEE9constructB8ue170006IS4_JRKS4_EEEvPT_DpOT0_, symObjAddr: 0x51B8, symBinAddr: 0x100007128, symSize: 0x30 }
  - { offsetInCU: 0x1FF3A, offset: 0x1FF3A, size: 0x8, addend: 0x0, symName: __ZNSt3__16vectorI5StateNS_9allocatorIS1_EEEC1ERKS4_, symObjAddr: 0x51E8, symBinAddr: 0x100007158, symSize: 0x34 }
  - { offsetInCU: 0x1FF75, offset: 0x1FF75, size: 0x8, addend: 0x0, symName: __ZNSt3__16vectorI5StateNS_9allocatorIS1_EEEC2ERKS4_, symObjAddr: 0x521C, symBinAddr: 0x10000718C, symSize: 0x94 }
  - { offsetInCU: 0x1FFB0, offset: 0x1FFB0, size: 0x8, addend: 0x0, symName: __ZNSt3__116allocator_traitsINS_9allocatorI5StateEEE37select_on_container_copy_constructionB8ue170006IS3_vvEES3_RKS3_, symObjAddr: 0x52B0, symBinAddr: 0x100007220, symSize: 0x10 }
  - { offsetInCU: 0x1FFE5, offset: 0x1FFE5, size: 0x8, addend: 0x0, symName: __ZNSt3__117__compressed_pairIP5StateNS_9allocatorIS1_EEEC1B8ue170006IDnS4_EEOT_OT0_, symObjAddr: 0x52C0, symBinAddr: 0x100007230, symSize: 0x3C }
  - { offsetInCU: 0x2003D, offset: 0x2003D, size: 0x8, addend: 0x0, symName: __ZNSt3__16vectorI5StateNS_9allocatorIS1_EEE16__init_with_sizeB8ue170006IPS1_S6_EEvT_T0_m, symObjAddr: 0x52FC, symBinAddr: 0x10000726C, symSize: 0xB8 }
  - { offsetInCU: 0x200B1, offset: 0x200B1, size: 0x8, addend: 0x0, symName: __ZNSt3__117__compressed_pairIP5StateNS_9allocatorIS1_EEEC2B8ue170006IDnS4_EEOT_OT0_, symObjAddr: 0x53B4, symBinAddr: 0x100007324, symSize: 0x44 }
  - { offsetInCU: 0x20109, offset: 0x20109, size: 0x8, addend: 0x0, symName: __ZNSt3__122__compressed_pair_elemINS_9allocatorI5StateEELi1ELb1EEC2B8ue170006IS3_vEEOT_, symObjAddr: 0x53F8, symBinAddr: 0x100007368, symSize: 0x18 }
  - { offsetInCU: 0x2014B, offset: 0x2014B, size: 0x8, addend: 0x0, symName: __ZNSt3__16vectorI5StateNS_9allocatorIS1_EEE11__vallocateB8ue170006Em, symObjAddr: 0x5450, symBinAddr: 0x1000073C0, symSize: 0xAC }
  - { offsetInCU: 0x2018F, offset: 0x2018F, size: 0x8, addend: 0x0, symName: __ZNSt3__16vectorI5StateNS_9allocatorIS1_EEE18__construct_at_endIPS1_S6_EEvT_T0_m, symObjAddr: 0x54FC, symBinAddr: 0x10000746C, symSize: 0x8C }
  - { offsetInCU: 0x20205, offset: 0x20205, size: 0x8, addend: 0x0, symName: __ZNSt3__128__exception_guard_exceptionsINS_6vectorI5StateNS_9allocatorIS2_EEE16__destroy_vectorEE10__completeB8ue170006Ev, symObjAddr: 0x5588, symBinAddr: 0x1000074F8, symSize: 0x1C }
  - { offsetInCU: 0x2022B, offset: 0x2022B, size: 0x8, addend: 0x0, symName: __ZNSt3__128__exception_guard_exceptionsINS_6vectorI5StateNS_9allocatorIS2_EEE16__destroy_vectorEED1B8ue170006Ev, symObjAddr: 0x55A4, symBinAddr: 0x100007514, symSize: 0x2C }
  - { offsetInCU: 0x20255, offset: 0x20255, size: 0x8, addend: 0x0, symName: __ZNSt3__128__exception_guard_exceptionsINS_6vectorI5StateNS_9allocatorIS2_EEE16__destroy_vectorEEC1B8ue170006ES6_, symObjAddr: 0x55D0, symBinAddr: 0x100007540, symSize: 0x34 }
  - { offsetInCU: 0x2028D, offset: 0x2028D, size: 0x8, addend: 0x0, symName: __ZNSt3__128__exception_guard_exceptionsINS_6vectorI5StateNS_9allocatorIS2_EEE16__destroy_vectorEEC2B8ue170006ES6_, symObjAddr: 0x5604, symBinAddr: 0x100007574, symSize: 0x24 }
  - { offsetInCU: 0x202E7, offset: 0x202E7, size: 0x8, addend: 0x0, symName: __ZNSt3__14pairIP5StateS2_EC1B8ue170006IS2_S2_LPv0EEEOT_OT0_, symObjAddr: 0x57D8, symBinAddr: 0x100007748, symSize: 0x3C }
  - { offsetInCU: 0x20345, offset: 0x20345, size: 0x8, addend: 0x0, symName: __ZNSt3__14pairIP5StateS2_EC2B8ue170006IS2_S2_LPv0EEEOT_OT0_, symObjAddr: 0x5814, symBinAddr: 0x100007784, symSize: 0x34 }
  - { offsetInCU: 0x203AD, offset: 0x203AD, size: 0x8, addend: 0x0, symName: __ZNKSt3__114__copy_trivialclB8ue170006I5StateS2_Li0EEENS_4pairIPT_PT0_EES5_S5_S7_, symObjAddr: 0x59C4, symBinAddr: 0x100007934, symSize: 0x48 }
  - { offsetInCU: 0x20415, offset: 0x20415, size: 0x8, addend: 0x0, symName: __ZNSt3__14pairIP5StateS2_EC1B8ue170006IRS2_S2_LPv0EEEOT_OT0_, symObjAddr: 0x5B54, symBinAddr: 0x100007AC4, symSize: 0x3C }
  - { offsetInCU: 0x20473, offset: 0x20473, size: 0x8, addend: 0x0, symName: __ZNSt3__14pairIP5StateS2_EC2B8ue170006IRS2_S2_LPv0EEEOT_OT0_, symObjAddr: 0x5B90, symBinAddr: 0x100007B00, symSize: 0x34 }
  - { offsetInCU: 0x204D1, offset: 0x204D1, size: 0x8, addend: 0x0, symName: __ZNSt3__118__unwrap_iter_implIP5StateLb1EE8__unwrapB8ue170006ES2_, symObjAddr: 0x5BC4, symBinAddr: 0x100007B34, symSize: 0x24 }
  - { offsetInCU: 0x204F4, offset: 0x204F4, size: 0x8, addend: 0x0, symName: __ZNSt3__118__unwrap_iter_implIP5StateLb1EE8__rewrapB8ue170006ES2_S2_, symObjAddr: 0x5BE8, symBinAddr: 0x100007B58, symSize: 0x50 }
  - { offsetInCU: 0x20525, offset: 0x20525, size: 0x8, addend: 0x0, symName: __ZNSt3__128__exception_guard_exceptionsINS_6vectorI5StateNS_9allocatorIS2_EEE16__destroy_vectorEED2B8ue170006Ev, symObjAddr: 0x5C38, symBinAddr: 0x100007BA8, symSize: 0x48 }
  - { offsetInCU: 0x2054F, offset: 0x2054F, size: 0x8, addend: 0x0, symName: __ZNSt3__16vectorINS0_I5StateNS_9allocatorIS1_EEEENS2_IS4_EEE21_ConstructTransactionD2B8ue170006Ev, symObjAddr: 0x5C80, symBinAddr: 0x100007BF0, symSize: 0x20 }
  - { offsetInCU: 0x20579, offset: 0x20579, size: 0x8, addend: 0x0, symName: __ZNKSt3__16vectorINS0_I5StateNS_9allocatorIS1_EEEENS2_IS4_EEE11__recommendB8ue170006Em, symObjAddr: 0x5CA0, symBinAddr: 0x100007C10, symSize: 0xB4 }
  - { offsetInCU: 0x205CE, offset: 0x205CE, size: 0x8, addend: 0x0, symName: __ZNSt3__114__split_bufferINS_6vectorI5StateNS_9allocatorIS2_EEEERNS3_IS5_EEEC1EmmS7_, symObjAddr: 0x5D54, symBinAddr: 0x100007CC4, symSize: 0x44 }
  - { offsetInCU: 0x20624, offset: 0x20624, size: 0x8, addend: 0x0, symName: __ZNSt3__114__split_bufferINS_6vectorI5StateNS_9allocatorIS2_EEEERNS3_IS5_EEED1Ev, symObjAddr: 0x5EA8, symBinAddr: 0x100007E18, symSize: 0x2C }
  - { offsetInCU: 0x20650, offset: 0x20650, size: 0x8, addend: 0x0, symName: __ZNKSt3__16vectorINS0_I5StateNS_9allocatorIS1_EEEENS2_IS4_EEE8max_sizeEv, symObjAddr: 0x5ED4, symBinAddr: 0x100007E44, symSize: 0x60 }
  - { offsetInCU: 0x20678, offset: 0x20678, size: 0x8, addend: 0x0, symName: __ZNKSt3__16vectorINS0_I5StateNS_9allocatorIS1_EEEENS2_IS4_EEE20__throw_length_errorB8ue170006Ev, symObjAddr: 0x5F34, symBinAddr: 0x100007EA4, symSize: 0x1C }
  - { offsetInCU: 0x206A9, offset: 0x206A9, size: 0x8, addend: 0x0, symName: __ZNSt3__116allocator_traitsINS_9allocatorINS_6vectorI5StateNS1_IS3_EEEEEEE8max_sizeB8ue170006IS6_vEEmRKS6_, symObjAddr: 0x5F50, symBinAddr: 0x100007EC0, symSize: 0x24 }
  - { offsetInCU: 0x206D7, offset: 0x206D7, size: 0x8, addend: 0x0, symName: __ZNKSt3__16vectorINS0_I5StateNS_9allocatorIS1_EEEENS2_IS4_EEE7__allocB8ue170006Ev, symObjAddr: 0x5F74, symBinAddr: 0x100007EE4, symSize: 0x28 }
  - { offsetInCU: 0x206FD, offset: 0x206FD, size: 0x8, addend: 0x0, symName: __ZNKSt3__19allocatorINS_6vectorI5StateNS0_IS2_EEEEE8max_sizeB8ue170006Ev, symObjAddr: 0x5F9C, symBinAddr: 0x100007F0C, symSize: 0x18 }
  - { offsetInCU: 0x20723, offset: 0x20723, size: 0x8, addend: 0x0, symName: __ZNKSt3__117__compressed_pairIPNS_6vectorI5StateNS_9allocatorIS2_EEEENS3_IS5_EEE6secondB8ue170006Ev, symObjAddr: 0x5FB4, symBinAddr: 0x100007F24, symSize: 0x24 }
  - { offsetInCU: 0x20749, offset: 0x20749, size: 0x8, addend: 0x0, symName: __ZNKSt3__122__compressed_pair_elemINS_9allocatorINS_6vectorI5StateNS1_IS3_EEEEEELi1ELb1EE5__getB8ue170006Ev, symObjAddr: 0x5FD8, symBinAddr: 0x100007F48, symSize: 0x14 }
  - { offsetInCU: 0x2076F, offset: 0x2076F, size: 0x8, addend: 0x0, symName: __ZNSt3__114__split_bufferINS_6vectorI5StateNS_9allocatorIS2_EEEERNS3_IS5_EEEC2EmmS7_, symObjAddr: 0x5FEC, symBinAddr: 0x100007F5C, symSize: 0xE0 }
  - { offsetInCU: 0x207E2, offset: 0x207E2, size: 0x8, addend: 0x0, symName: __ZNSt3__117__compressed_pairIPNS_6vectorI5StateNS_9allocatorIS2_EEEERNS3_IS5_EEEC1B8ue170006IDnS8_EEOT_OT0_, symObjAddr: 0x60CC, symBinAddr: 0x10000803C, symSize: 0x3C }
  - { offsetInCU: 0x2083A, offset: 0x2083A, size: 0x8, addend: 0x0, symName: __ZNSt3__114__split_bufferINS_6vectorI5StateNS_9allocatorIS2_EEEERNS3_IS5_EEE7__allocB8ue170006Ev, symObjAddr: 0x6148, symBinAddr: 0x1000080B8, symSize: 0x28 }
  - { offsetInCU: 0x20860, offset: 0x20860, size: 0x8, addend: 0x0, symName: __ZNSt3__114__split_bufferINS_6vectorI5StateNS_9allocatorIS2_EEEERNS3_IS5_EEE9__end_capB8ue170006Ev, symObjAddr: 0x6170, symBinAddr: 0x1000080E0, symSize: 0x28 }
  - { offsetInCU: 0x20886, offset: 0x20886, size: 0x8, addend: 0x0, symName: __ZNSt3__117__compressed_pairIPNS_6vectorI5StateNS_9allocatorIS2_EEEERNS3_IS5_EEEC2B8ue170006IDnS8_EEOT_OT0_, symObjAddr: 0x6198, symBinAddr: 0x100008108, symSize: 0x48 }
  - { offsetInCU: 0x208DE, offset: 0x208DE, size: 0x8, addend: 0x0, symName: __ZNSt3__122__compressed_pair_elemIRNS_9allocatorINS_6vectorI5StateNS1_IS3_EEEEEELi1ELb0EEC2B8ue170006IS7_vEEOT_, symObjAddr: 0x61E0, symBinAddr: 0x100008150, symSize: 0x20 }
  - { offsetInCU: 0x20920, offset: 0x20920, size: 0x8, addend: 0x0, symName: __ZNSt3__19allocatorINS_6vectorI5StateNS0_IS2_EEEEE8allocateB8ue170006Em, symObjAddr: 0x6200, symBinAddr: 0x100008170, symSize: 0x5C }
  - { offsetInCU: 0x20954, offset: 0x20954, size: 0x8, addend: 0x0, symName: __ZNSt3__117__compressed_pairIPNS_6vectorI5StateNS_9allocatorIS2_EEEERNS3_IS5_EEE6secondB8ue170006Ev, symObjAddr: 0x625C, symBinAddr: 0x1000081CC, symSize: 0x28 }
  - { offsetInCU: 0x2097A, offset: 0x2097A, size: 0x8, addend: 0x0, symName: __ZNSt3__122__compressed_pair_elemIRNS_9allocatorINS_6vectorI5StateNS1_IS3_EEEEEELi1ELb0EE5__getB8ue170006Ev, symObjAddr: 0x6284, symBinAddr: 0x1000081F4, symSize: 0x18 }
  - { offsetInCU: 0x209A0, offset: 0x209A0, size: 0x8, addend: 0x0, symName: __ZNSt3__117__compressed_pairIPNS_6vectorI5StateNS_9allocatorIS2_EEEERNS3_IS5_EEE5firstB8ue170006Ev, symObjAddr: 0x629C, symBinAddr: 0x10000820C, symSize: 0x24 }
  - { offsetInCU: 0x209C6, offset: 0x209C6, size: 0x8, addend: 0x0, symName: __ZNSt3__116reverse_iteratorIPNS_6vectorI5StateNS_9allocatorIS2_EEEEEC1B8ue170006ES6_, symObjAddr: 0x63EC, symBinAddr: 0x10000835C, symSize: 0x34 }
  - { offsetInCU: 0x209FE, offset: 0x209FE, size: 0x8, addend: 0x0, symName: __ZNKSt3__116reverse_iteratorIPNS_6vectorI5StateNS_9allocatorIS2_EEEEE4baseB8ue170006Ev, symObjAddr: 0x6420, symBinAddr: 0x100008390, symSize: 0x18 }
  - { offsetInCU: 0x20A24, offset: 0x20A24, size: 0x8, addend: 0x0, symName: __ZNKSt3__16vectorINS0_I5StateNS_9allocatorIS1_EEEENS2_IS4_EEE14__annotate_newB8ue170006Em, symObjAddr: 0x6474, symBinAddr: 0x1000083E4, symSize: 0xC8 }
  - { offsetInCU: 0x20A59, offset: 0x20A59, size: 0x8, addend: 0x0, symName: __ZNSt3__129_AllocatorDestroyRangeReverseINS_9allocatorINS_6vectorI5StateNS1_IS3_EEEEEENS_16reverse_iteratorIPS5_EEEC1B8ue170006ERS6_RS9_SC_, symObjAddr: 0x6588, symBinAddr: 0x1000084F8, symSize: 0x44 }
  - { offsetInCU: 0x20AB0, offset: 0x20AB0, size: 0x8, addend: 0x0, symName: __ZNSt3__116allocator_traitsINS_9allocatorINS_6vectorI5StateNS1_IS3_EEEEEEE9constructB8ue170006IS5_JS5_EvEEvRS6_PT_DpOT0_, symObjAddr: 0x6614, symBinAddr: 0x100008584, symSize: 0x34 }
  - { offsetInCU: 0x20B07, offset: 0x20B07, size: 0x8, addend: 0x0, symName: __ZNKSt3__116reverse_iteratorIPNS_6vectorI5StateNS_9allocatorIS2_EEEEEdeB8ue170006Ev, symObjAddr: 0x666C, symBinAddr: 0x1000085DC, symSize: 0x28 }
  - { offsetInCU: 0x20B3B, offset: 0x20B3B, size: 0x8, addend: 0x0, symName: __ZNSt3__116reverse_iteratorIPNS_6vectorI5StateNS_9allocatorIS2_EEEEEppB8ue170006Ev, symObjAddr: 0x6694, symBinAddr: 0x100008604, symSize: 0x20 }
  - { offsetInCU: 0x20B61, offset: 0x20B61, size: 0x8, addend: 0x0, symName: __ZNSt3__128__exception_guard_exceptionsINS_29_AllocatorDestroyRangeReverseINS_9allocatorINS_6vectorI5StateNS2_IS4_EEEEEENS_16reverse_iteratorIPS6_EEEEE10__completeB8ue170006Ev, symObjAddr: 0x66B4, symBinAddr: 0x100008624, symSize: 0x1C }
  - { offsetInCU: 0x20B87, offset: 0x20B87, size: 0x8, addend: 0x0, symName: __ZNSt3__128__exception_guard_exceptionsINS_29_AllocatorDestroyRangeReverseINS_9allocatorINS_6vectorI5StateNS2_IS4_EEEEEENS_16reverse_iteratorIPS6_EEEEED1B8ue170006Ev, symObjAddr: 0x66D0, symBinAddr: 0x100008640, symSize: 0x2C }
  - { offsetInCU: 0x20BB1, offset: 0x20BB1, size: 0x8, addend: 0x0, symName: __ZNSt3__128__exception_guard_exceptionsINS_29_AllocatorDestroyRangeReverseINS_9allocatorINS_6vectorI5StateNS2_IS4_EEEEEENS_16reverse_iteratorIPS6_EEEEEC1B8ue170006ESB_, symObjAddr: 0x66FC, symBinAddr: 0x10000866C, symSize: 0x34 }
  - { offsetInCU: 0x20BEA, offset: 0x20BEA, size: 0x8, addend: 0x0, symName: __ZNSt3__128__exception_guard_exceptionsINS_29_AllocatorDestroyRangeReverseINS_9allocatorINS_6vectorI5StateNS2_IS4_EEEEEENS_16reverse_iteratorIPS6_EEEEEC2B8ue170006ESB_, symObjAddr: 0x6730, symBinAddr: 0x1000086A0, symSize: 0x30 }
  - { offsetInCU: 0x20C23, offset: 0x20C23, size: 0x8, addend: 0x0, symName: __ZNSt3__129_AllocatorDestroyRangeReverseINS_9allocatorINS_6vectorI5StateNS1_IS3_EEEEEENS_16reverse_iteratorIPS5_EEEC2B8ue170006ERS6_RS9_SC_, symObjAddr: 0x6760, symBinAddr: 0x1000086D0, symSize: 0x38 }
  - { offsetInCU: 0x20C7A, offset: 0x20C7A, size: 0x8, addend: 0x0, symName: __ZNSt3__19allocatorINS_6vectorI5StateNS0_IS2_EEEEE9constructB8ue170006IS4_JS4_EEEvPT_DpOT0_, symObjAddr: 0x6798, symBinAddr: 0x100008708, symSize: 0x30 }
  - { offsetInCU: 0x20CD0, offset: 0x20CD0, size: 0x8, addend: 0x0, symName: __ZNSt3__16vectorI5StateNS_9allocatorIS1_EEEC1B8ue170006EOS4_, symObjAddr: 0x67C8, symBinAddr: 0x100008738, symSize: 0x34 }
  - { offsetInCU: 0x20D0B, offset: 0x20D0B, size: 0x8, addend: 0x0, symName: __ZNSt3__16vectorI5StateNS_9allocatorIS1_EEEC2B8ue170006EOS4_, symObjAddr: 0x67FC, symBinAddr: 0x10000876C, symSize: 0xC4 }
  - { offsetInCU: 0x20D4C, offset: 0x20D4C, size: 0x8, addend: 0x0, symName: __ZNSt3__119__to_address_helperINS_16reverse_iteratorIPNS_6vectorI5StateNS_9allocatorIS3_EEEEEEvE6__callB8ue170006ERKS8_, symObjAddr: 0x68C0, symBinAddr: 0x100008830, symSize: 0x38 }
  - { offsetInCU: 0x20D6F, offset: 0x20D6F, size: 0x8, addend: 0x0, symName: __ZNKSt3__116reverse_iteratorIPNS_6vectorI5StateNS_9allocatorIS2_EEEEEptB8ue170006Ev, symObjAddr: 0x68F8, symBinAddr: 0x100008868, symSize: 0x24 }
  - { offsetInCU: 0x20D95, offset: 0x20D95, size: 0x8, addend: 0x0, symName: __ZNSt3__128__exception_guard_exceptionsINS_29_AllocatorDestroyRangeReverseINS_9allocatorINS_6vectorI5StateNS2_IS4_EEEEEENS_16reverse_iteratorIPS6_EEEEED2B8ue170006Ev, symObjAddr: 0x691C, symBinAddr: 0x10000888C, symSize: 0x50 }
  - { offsetInCU: 0x20DBF, offset: 0x20DBF, size: 0x8, addend: 0x0, symName: __ZNKSt3__129_AllocatorDestroyRangeReverseINS_9allocatorINS_6vectorI5StateNS1_IS3_EEEEEENS_16reverse_iteratorIPS5_EEEclB8ue170006Ev, symObjAddr: 0x696C, symBinAddr: 0x1000088DC, symSize: 0xB4 }
  - { offsetInCU: 0x20DE6, offset: 0x20DE6, size: 0x8, addend: 0x0, symName: __ZNSt3__116reverse_iteratorINS0_IPNS_6vectorI5StateNS_9allocatorIS2_EEEEEEEC1B8ue170006ES7_, symObjAddr: 0x6A90, symBinAddr: 0x100008A00, symSize: 0x3C }
  - { offsetInCU: 0x20E1E, offset: 0x20E1E, size: 0x8, addend: 0x0, symName: __ZNSt3__116reverse_iteratorINS0_IPNS_6vectorI5StateNS_9allocatorIS2_EEEEEEEppB8ue170006Ev, symObjAddr: 0x6B50, symBinAddr: 0x100008AC0, symSize: 0x30 }
  - { offsetInCU: 0x20E44, offset: 0x20E44, size: 0x8, addend: 0x0, symName: __ZNKSt3__116reverse_iteratorINS0_IPNS_6vectorI5StateNS_9allocatorIS2_EEEEEEE4baseB8ue170006Ev, symObjAddr: 0x6B80, symBinAddr: 0x100008AF0, symSize: 0x24 }
  - { offsetInCU: 0x20E70, offset: 0x20E70, size: 0x8, addend: 0x0, symName: __ZNSt3__119__to_address_helperINS_16reverse_iteratorINS1_IPNS_6vectorI5StateNS_9allocatorIS3_EEEEEEEEvE6__callB8ue170006ERKS9_, symObjAddr: 0x6BA4, symBinAddr: 0x100008B14, symSize: 0x38 }
  - { offsetInCU: 0x20E93, offset: 0x20E93, size: 0x8, addend: 0x0, symName: __ZNKSt3__116reverse_iteratorINS0_IPNS_6vectorI5StateNS_9allocatorIS2_EEEEEEEptB8ue170006Ev, symObjAddr: 0x6BDC, symBinAddr: 0x100008B4C, symSize: 0x24 }
  - { offsetInCU: 0x20EB9, offset: 0x20EB9, size: 0x8, addend: 0x0, symName: __ZNKSt3__116reverse_iteratorINS0_IPNS_6vectorI5StateNS_9allocatorIS2_EEEEEEEdeB8ue170006Ev, symObjAddr: 0x6C00, symBinAddr: 0x100008B70, symSize: 0x34 }
  - { offsetInCU: 0x20EED, offset: 0x20EED, size: 0x8, addend: 0x0, symName: __ZNSt3__116reverse_iteratorIPNS_6vectorI5StateNS_9allocatorIS2_EEEEEmmB8ue170006Ev, symObjAddr: 0x6C34, symBinAddr: 0x100008BA4, symSize: 0x20 }
  - { offsetInCU: 0x20F13, offset: 0x20F13, size: 0x8, addend: 0x0, symName: __ZNSt3__116reverse_iteratorINS0_IPNS_6vectorI5StateNS_9allocatorIS2_EEEEEEEC2B8ue170006ES7_, symObjAddr: 0x6C54, symBinAddr: 0x100008BC4, symSize: 0x2C }
  - { offsetInCU: 0x20F4B, offset: 0x20F4B, size: 0x8, addend: 0x0, symName: __ZNSt3__116reverse_iteratorIPNS_6vectorI5StateNS_9allocatorIS2_EEEEEC2B8ue170006ES6_, symObjAddr: 0x6C80, symBinAddr: 0x100008BF0, symSize: 0x28 }
  - { offsetInCU: 0x20F83, offset: 0x20F83, size: 0x8, addend: 0x0, symName: __ZNSt3__114__split_bufferINS_6vectorI5StateNS_9allocatorIS2_EEEERNS3_IS5_EEED2Ev, symObjAddr: 0x6CA8, symBinAddr: 0x100008C18, symSize: 0x8C }
  - { offsetInCU: 0x20FAF, offset: 0x20FAF, size: 0x8, addend: 0x0, symName: __ZNSt3__114__split_bufferINS_6vectorI5StateNS_9allocatorIS2_EEEERNS3_IS5_EEE5clearB8ue170006Ev, symObjAddr: 0x6D34, symBinAddr: 0x100008CA4, symSize: 0x28 }
  - { offsetInCU: 0x20FD5, offset: 0x20FD5, size: 0x8, addend: 0x0, symName: __ZNKSt3__114__split_bufferINS_6vectorI5StateNS_9allocatorIS2_EEEERNS3_IS5_EEE8capacityB8ue170006Ev, symObjAddr: 0x6D5C, symBinAddr: 0x100008CCC, symSize: 0x40 }
  - { offsetInCU: 0x20FFB, offset: 0x20FFB, size: 0x8, addend: 0x0, symName: __ZNSt3__114__split_bufferINS_6vectorI5StateNS_9allocatorIS2_EEEERNS3_IS5_EEE17__destruct_at_endB8ue170006EPS5_, symObjAddr: 0x6D9C, symBinAddr: 0x100008D0C, symSize: 0x2C }
  - { offsetInCU: 0x2102F, offset: 0x2102F, size: 0x8, addend: 0x0, symName: __ZNSt3__114__split_bufferINS_6vectorI5StateNS_9allocatorIS2_EEEERNS3_IS5_EEE17__destruct_at_endB8ue170006EPS5_NS_17integral_constantIbLb0EEE, symObjAddr: 0x6DC8, symBinAddr: 0x100008D38, symSize: 0x80 }
  - { offsetInCU: 0x2106F, offset: 0x2106F, size: 0x8, addend: 0x0, symName: __ZNKSt3__114__split_bufferINS_6vectorI5StateNS_9allocatorIS2_EEEERNS3_IS5_EEE9__end_capB8ue170006Ev, symObjAddr: 0x6E48, symBinAddr: 0x100008DB8, symSize: 0x28 }
  - { offsetInCU: 0x21095, offset: 0x21095, size: 0x8, addend: 0x0, symName: __ZNKSt3__117__compressed_pairIPNS_6vectorI5StateNS_9allocatorIS2_EEEERNS3_IS5_EEE5firstB8ue170006Ev, symObjAddr: 0x6E70, symBinAddr: 0x100008DE0, symSize: 0x24 }
  - { offsetInCU: 0x210BB, offset: 0x210BB, size: 0x8, addend: 0x0, symName: __ZNSt3__16vectorINS0_I5StateNS_9allocatorIS1_EEEENS2_IS4_EEEC2B8ue170006EOS6_, symObjAddr: 0x6E94, symBinAddr: 0x100008E04, symSize: 0xC4 }
  - { offsetInCU: 0x210FC, offset: 0x210FC, size: 0x8, addend: 0x0, symName: __ZNSt3__117__compressed_pairIPNS_6vectorI5StateNS_9allocatorIS2_EEEENS3_IS5_EEEC1B8ue170006IDnS7_EEOT_OT0_, symObjAddr: 0x6F58, symBinAddr: 0x100008EC8, symSize: 0x3C }
  - { offsetInCU: 0x21154, offset: 0x21154, size: 0x8, addend: 0x0, symName: __ZNSt3__117__compressed_pairIPNS_6vectorI5StateNS_9allocatorIS2_EEEENS3_IS5_EEEC2B8ue170006IDnS7_EEOT_OT0_, symObjAddr: 0x6F94, symBinAddr: 0x100008F04, symSize: 0x44 }
  - { offsetInCU: 0x211AC, offset: 0x211AC, size: 0x8, addend: 0x0, symName: __ZNSt3__122__compressed_pair_elemINS_9allocatorINS_6vectorI5StateNS1_IS3_EEEEEELi1ELb1EEC2B8ue170006IS6_vEEOT_, symObjAddr: 0x6FD8, symBinAddr: 0x100008F48, symSize: 0x18 }
  - { offsetInCU: 0x211EE, offset: 0x211EE, size: 0x8, addend: 0x0, symName: __ZNSt3__16vectorINS0_IiNS_9allocatorIiEEEENS1_IS3_EEE11__make_iterB8ue170006EPS3_, symObjAddr: 0x6FF0, symBinAddr: 0x100008F60, symSize: 0x30 }
  - { offsetInCU: 0x21223, offset: 0x21223, size: 0x8, addend: 0x0, symName: __ZNSt3__111__wrap_iterIPNS_6vectorIiNS_9allocatorIiEEEEEC1B8ue170006ES5_, symObjAddr: 0x7020, symBinAddr: 0x100008F90, symSize: 0x34 }
  - { offsetInCU: 0x2125B, offset: 0x2125B, size: 0x8, addend: 0x0, symName: __ZNSt3__111__wrap_iterIPNS_6vectorIiNS_9allocatorIiEEEEEC2B8ue170006ES5_, symObjAddr: 0x7054, symBinAddr: 0x100008FC4, symSize: 0x20 }
  - { offsetInCU: 0x21293, offset: 0x21293, size: 0x8, addend: 0x0, symName: __ZNSt3__18_IterOpsINS_17_ClassicAlgPolicyEE9iter_swapB8ue170006IRPNS_6vectorIiNS_9allocatorIiEEEES9_EEvOT_OT0_, symObjAddr: 0x78F0, symBinAddr: 0x100009860, symSize: 0x34 }
  - { offsetInCU: 0x212DC, offset: 0x212DC, size: 0x8, addend: 0x0, symName: __ZNSt3__18_IterOpsINS_17_ClassicAlgPolicyEE9iter_swapB8ue170006IRPNS_6vectorIiNS_9allocatorIiEEEES8_EEvOT_OT0_, symObjAddr: 0x83CC, symBinAddr: 0x10000A33C, symSize: 0x34 }
  - { offsetInCU: 0x2131F, offset: 0x2131F, size: 0x8, addend: 0x0, symName: __ZNSt3__16vectorIiNS_9allocatorIiEEE4swapERS3_, symObjAddr: 0x9B04, symBinAddr: 0x10000BA74, symSize: 0x84 }
  - { offsetInCU: 0x21356, offset: 0x21356, size: 0x8, addend: 0x0, symName: __ZNSt3__16vectorIiNS_9allocatorIiEEE9__end_capB8ue170006Ev, symObjAddr: 0x9BC4, symBinAddr: 0x10000BB34, symSize: 0x28 }
  - { offsetInCU: 0x2137C, offset: 0x2137C, size: 0x8, addend: 0x0, symName: __ZNSt3__16vectorIiNS_9allocatorIiEEE7__allocB8ue170006Ev, symObjAddr: 0x9C00, symBinAddr: 0x10000BB70, symSize: 0x28 }
  - { offsetInCU: 0x213A2, offset: 0x213A2, size: 0x8, addend: 0x0, symName: __ZNSt3__117__compressed_pairIPiNS_9allocatorIiEEE5firstB8ue170006Ev, symObjAddr: 0x9C28, symBinAddr: 0x10000BB98, symSize: 0x24 }
  - { offsetInCU: 0x213C8, offset: 0x213C8, size: 0x8, addend: 0x0, symName: __ZNSt3__122__compressed_pair_elemIPiLi0ELb0EE5__getB8ue170006Ev, symObjAddr: 0x9C4C, symBinAddr: 0x10000BBBC, symSize: 0x14 }
  - { offsetInCU: 0x213EE, offset: 0x213EE, size: 0x8, addend: 0x0, symName: __ZNSt3__117__compressed_pairIPiNS_9allocatorIiEEE6secondB8ue170006Ev, symObjAddr: 0x9C60, symBinAddr: 0x10000BBD0, symSize: 0x24 }
  - { offsetInCU: 0x21414, offset: 0x21414, size: 0x8, addend: 0x0, symName: __ZNSt3__122__compressed_pair_elemINS_9allocatorIiEELi1ELb1EE5__getB8ue170006Ev, symObjAddr: 0x9C84, symBinAddr: 0x10000BBF4, symSize: 0x14 }
  - { offsetInCU: 0x2143A, offset: 0x2143A, size: 0x8, addend: 0x0, symName: __ZNSt3__18_IterOpsINS_17_ClassicAlgPolicyEE11__iter_moveB8ue170006IRPNS_6vectorIiNS_9allocatorIiEEEEEENS_9enable_ifIXsr12is_referenceIDTdeclsr3stdE7declvalIRT_EEEEE5valueEDTclsr3stdE4movedeclsr3stdE7declvalISC_EEEEE4typeEOSB_, symObjAddr: 0xA1A0, symBinAddr: 0x10000C110, symSize: 0x28 }
  - { offsetInCU: 0x21466, offset: 0x21466, size: 0x8, addend: 0x0, symName: __ZNSt3__16vectorIiNS_9allocatorIiEEEC1B8ue170006EOS3_, symObjAddr: 0xA1C8, symBinAddr: 0x10000C138, symSize: 0x34 }
  - { offsetInCU: 0x214A1, offset: 0x214A1, size: 0x8, addend: 0x0, symName: __ZNSt3__16vectorIiNS_9allocatorIiEEEaSB8ue170006EOS3_, symObjAddr: 0xA1FC, symBinAddr: 0x10000C16C, symSize: 0x34 }
  - { offsetInCU: 0x214D8, offset: 0x214D8, size: 0x8, addend: 0x0, symName: __ZNSt3__18_IterOpsINS_17_ClassicAlgPolicyEE25__validate_iter_referenceB8ue170006IRPNS_6vectorIiNS_9allocatorIiEEEEEEvv, symObjAddr: 0xA230, symBinAddr: 0x10000C1A0, symSize: 0x4 }
  - { offsetInCU: 0x214F6, offset: 0x214F6, size: 0x8, addend: 0x0, symName: __ZNSt3__16vectorIiNS_9allocatorIiEEEC2B8ue170006EOS3_, symObjAddr: 0xA234, symBinAddr: 0x10000C1A4, symSize: 0xC4 }
  - { offsetInCU: 0x21537, offset: 0x21537, size: 0x8, addend: 0x0, symName: __ZNSt3__117__compressed_pairIPiNS_9allocatorIiEEEC1B8ue170006IDnS3_EEOT_OT0_, symObjAddr: 0xA2F8, symBinAddr: 0x10000C268, symSize: 0x3C }
  - { offsetInCU: 0x2158F, offset: 0x2158F, size: 0x8, addend: 0x0, symName: __ZNSt3__117__compressed_pairIPiNS_9allocatorIiEEEC2B8ue170006IDnS3_EEOT_OT0_, symObjAddr: 0xA334, symBinAddr: 0x10000C2A4, symSize: 0x44 }
  - { offsetInCU: 0x215E7, offset: 0x215E7, size: 0x8, addend: 0x0, symName: __ZNSt3__122__compressed_pair_elemIPiLi0ELb0EEC2B8ue170006IDnvEEOT_, symObjAddr: 0xA378, symBinAddr: 0x10000C2E8, symSize: 0x1C }
  - { offsetInCU: 0x21629, offset: 0x21629, size: 0x8, addend: 0x0, symName: __ZNSt3__122__compressed_pair_elemINS_9allocatorIiEELi1ELb1EEC2B8ue170006IS2_vEEOT_, symObjAddr: 0xA394, symBinAddr: 0x10000C304, symSize: 0x18 }
  - { offsetInCU: 0x2166B, offset: 0x2166B, size: 0x8, addend: 0x0, symName: __ZNSt3__16vectorIiNS_9allocatorIiEEE13__move_assignERS3_NS_17integral_constantIbLb1EEE, symObjAddr: 0xA3AC, symBinAddr: 0x10000C31C, symSize: 0x94 }
  - { offsetInCU: 0x216AD, offset: 0x216AD, size: 0x8, addend: 0x0, symName: __ZNSt3__16vectorIiNS_9allocatorIiEEE13__vdeallocateEv, symObjAddr: 0xA440, symBinAddr: 0x10000C3B0, symSize: 0x94 }
  - { offsetInCU: 0x216D5, offset: 0x216D5, size: 0x8, addend: 0x0, symName: __ZNSt3__16vectorIiNS_9allocatorIiEEE19__move_assign_allocB8ue170006ERS3_, symObjAddr: 0xA4D4, symBinAddr: 0x10000C444, symSize: 0x2C }
  - { offsetInCU: 0x2170A, offset: 0x2170A, size: 0x8, addend: 0x0, symName: __ZNSt3__16vectorIiNS_9allocatorIiEEE5clearB8ue170006Ev, symObjAddr: 0xA500, symBinAddr: 0x10000C470, symSize: 0x44 }
  - { offsetInCU: 0x2173F, offset: 0x2173F, size: 0x8, addend: 0x0, symName: __ZNKSt3__16vectorIiNS_9allocatorIiEEE17__annotate_deleteB8ue170006Ev, symObjAddr: 0xA544, symBinAddr: 0x10000C4B4, symSize: 0xB8 }
  - { offsetInCU: 0x21765, offset: 0x21765, size: 0x8, addend: 0x0, symName: __ZNSt3__116allocator_traitsINS_9allocatorIiEEE10deallocateB8ue170006ERS2_Pim, symObjAddr: 0xA5FC, symBinAddr: 0x10000C56C, symSize: 0x34 }
  - { offsetInCU: 0x217A7, offset: 0x217A7, size: 0x8, addend: 0x0, symName: __ZNKSt3__16vectorIiNS_9allocatorIiEEE8capacityB8ue170006Ev, symObjAddr: 0xA630, symBinAddr: 0x10000C5A0, symSize: 0x40 }
  - { offsetInCU: 0x217CD, offset: 0x217CD, size: 0x8, addend: 0x0, symName: __ZNKSt3__16vectorIiNS_9allocatorIiEEE4sizeB8ue170006Ev, symObjAddr: 0xA670, symBinAddr: 0x10000C5E0, symSize: 0x28 }
  - { offsetInCU: 0x217F3, offset: 0x217F3, size: 0x8, addend: 0x0, symName: __ZNSt3__16vectorIiNS_9allocatorIiEEE7__clearB8ue170006Ev, symObjAddr: 0xA698, symBinAddr: 0x10000C608, symSize: 0x28 }
  - { offsetInCU: 0x21819, offset: 0x21819, size: 0x8, addend: 0x0, symName: __ZNKSt3__16vectorIiNS_9allocatorIiEEE17__annotate_shrinkB8ue170006Em, symObjAddr: 0xA6C0, symBinAddr: 0x10000C630, symSize: 0xB4 }
  - { offsetInCU: 0x2184E, offset: 0x2184E, size: 0x8, addend: 0x0, symName: __ZNSt3__16vectorIiNS_9allocatorIiEEE22__base_destruct_at_endB8ue170006EPi, symObjAddr: 0xA774, symBinAddr: 0x10000C6E4, symSize: 0x8C }
  - { offsetInCU: 0x21892, offset: 0x21892, size: 0x8, addend: 0x0, symName: __ZNSt3__116allocator_traitsINS_9allocatorIiEEE7destroyB8ue170006IivEEvRS2_PT_, symObjAddr: 0xA800, symBinAddr: 0x10000C770, symSize: 0x2C }
  - { offsetInCU: 0x218CF, offset: 0x218CF, size: 0x8, addend: 0x0, symName: __ZNSt3__19allocatorIiE7destroyB8ue170006EPi, symObjAddr: 0xA840, symBinAddr: 0x10000C7B0, symSize: 0x14 }
  - { offsetInCU: 0x21903, offset: 0x21903, size: 0x8, addend: 0x0, symName: __ZNKSt3__16vectorIiNS_9allocatorIiEEE31__annotate_contiguous_containerB8ue170006EPKvS5_S5_S5_, symObjAddr: 0xA854, symBinAddr: 0x10000C7C4, symSize: 0x20 }
  - { offsetInCU: 0x21955, offset: 0x21955, size: 0x8, addend: 0x0, symName: __ZNKSt3__16vectorIiNS_9allocatorIiEEE4dataB8ue170006Ev, symObjAddr: 0xA874, symBinAddr: 0x10000C7E4, symSize: 0x28 }
  - { offsetInCU: 0x2197B, offset: 0x2197B, size: 0x8, addend: 0x0, symName: __ZNSt3__19allocatorIiE10deallocateB8ue170006EPim, symObjAddr: 0xA89C, symBinAddr: 0x10000C80C, symSize: 0x40 }
  - { offsetInCU: 0x219BD, offset: 0x219BD, size: 0x8, addend: 0x0, symName: __ZNKSt3__16vectorIiNS_9allocatorIiEEE9__end_capB8ue170006Ev, symObjAddr: 0xA8DC, symBinAddr: 0x10000C84C, symSize: 0x28 }
  - { offsetInCU: 0x219E3, offset: 0x219E3, size: 0x8, addend: 0x0, symName: __ZNKSt3__117__compressed_pairIPiNS_9allocatorIiEEE5firstB8ue170006Ev, symObjAddr: 0xA904, symBinAddr: 0x10000C874, symSize: 0x24 }
  - { offsetInCU: 0x21A09, offset: 0x21A09, size: 0x8, addend: 0x0, symName: __ZNKSt3__122__compressed_pair_elemIPiLi0ELb0EE5__getB8ue170006Ev, symObjAddr: 0xA928, symBinAddr: 0x10000C898, symSize: 0x14 }
  - { offsetInCU: 0x21A2F, offset: 0x21A2F, size: 0x8, addend: 0x0, symName: __ZNSt3__16vectorIiNS_9allocatorIiEEE19__move_assign_allocB8ue170006ERS3_NS_17integral_constantIbLb1EEE, symObjAddr: 0xA93C, symBinAddr: 0x10000C8AC, symSize: 0x38 }
  - { offsetInCU: 0x21A6F, offset: 0x21A6F, size: 0x8, addend: 0x0, symName: __ZNSt3__18_IterOpsINS_17_ClassicAlgPolicyEE4nextB8ue170006IPNS_6vectorIiNS_9allocatorIiEEEEEET_S9_S9_, symObjAddr: 0xA974, symBinAddr: 0x10000C8E4, symSize: 0x18 }
  - { offsetInCU: 0x21AA5, offset: 0x21AA5, size: 0x8, addend: 0x0, symName: __ZNSt3__18_IterOpsINS_17_ClassicAlgPolicyEE9iter_swapB8ue170006IPNS_6vectorIiNS_9allocatorIiEEEES8_EEvOT_OT0_, symObjAddr: 0xC198, symBinAddr: 0x10000E108, symSize: 0x34 }
  - { offsetInCU: 0x21B04, offset: 0x21B04, size: 0x8, addend: 0x0, symName: __ZNSt3__14pairIPNS_6vectorIiNS_9allocatorIiEEEEbEC1B8ue170006IRS5_RbLPv0EEEOT_OT0_, symObjAddr: 0xC1E8, symBinAddr: 0x10000E158, symSize: 0x3C }
  - { offsetInCU: 0x21B62, offset: 0x21B62, size: 0x8, addend: 0x0, symName: __ZNSt3__14pairIPNS_6vectorIiNS_9allocatorIiEEEEbEC2B8ue170006IRS5_RbLPv0EEEOT_OT0_, symObjAddr: 0xC224, symBinAddr: 0x10000E194, symSize: 0x38 }
  - { offsetInCU: 0x21BC0, offset: 0x21BC0, size: 0x8, addend: 0x0, symName: __ZNSt3__118__unwrap_iter_implINS_11__wrap_iterIPNS_6vectorIiNS_9allocatorIiEEEEEELb1EE8__unwrapB8ue170006ES7_, symObjAddr: 0xC25C, symBinAddr: 0x10000E1CC, symSize: 0x28 }
  - { offsetInCU: 0x21BEE, offset: 0x21BEE, size: 0x8, addend: 0x0, symName: __ZNSt3__119__to_address_helperINS_11__wrap_iterIPNS_6vectorIiNS_9allocatorIiEEEEEEvE6__callB8ue170006ERKS7_, symObjAddr: 0xC2A8, symBinAddr: 0x10000E218, symSize: 0x30 }
  - { offsetInCU: 0x21C11, offset: 0x21C11, size: 0x8, addend: 0x0, symName: __ZNSt3__114pointer_traitsINS_11__wrap_iterIPNS_6vectorIiNS_9allocatorIiEEEEEEE10to_addressB8ue170006ES7_, symObjAddr: 0xC2D8, symBinAddr: 0x10000E248, symSize: 0x2C }
  - { offsetInCU: 0x21C34, offset: 0x21C34, size: 0x8, addend: 0x0, symName: __ZNKSt3__111__wrap_iterIPNS_6vectorIiNS_9allocatorIiEEEEE4baseB8ue170006Ev, symObjAddr: 0xC318, symBinAddr: 0x10000E288, symSize: 0x18 }
  - { offsetInCU: 0x21C5A, offset: 0x21C5A, size: 0x8, addend: 0x0, symName: __ZNSt3__16vectorIiNS_9allocatorIiEEEC2B8ue170006ESt16initializer_listIiE, symObjAddr: 0xC330, symBinAddr: 0x10000E2A0, symSize: 0x120 }
  - { offsetInCU: 0x21CAA, offset: 0x21CAA, size: 0x8, addend: 0x0, symName: __ZNSt3__117__compressed_pairIPiNS_9allocatorIiEEEC1B8ue170006IDnNS_18__default_init_tagEEEOT_OT0_, symObjAddr: 0xC450, symBinAddr: 0x10000E3C0, symSize: 0x3C }
  - { offsetInCU: 0x21D02, offset: 0x21D02, size: 0x8, addend: 0x0, symName: __ZNSt3__16vectorIiNS_9allocatorIiEEE16__destroy_vectorC1B8ue170006ERS3_, symObjAddr: 0xC4CC, symBinAddr: 0x10000E43C, symSize: 0x34 }
  - { offsetInCU: 0x21D3B, offset: 0x21D3B, size: 0x8, addend: 0x0, symName: __ZNKSt16initializer_listIiE4sizeB8ue170006Ev, symObjAddr: 0xC500, symBinAddr: 0x10000E470, symSize: 0x18 }
  - { offsetInCU: 0x21D61, offset: 0x21D61, size: 0x8, addend: 0x0, symName: __ZNSt3__16vectorIiNS_9allocatorIiEEE11__vallocateB8ue170006Em, symObjAddr: 0xC518, symBinAddr: 0x10000E488, symSize: 0xAC }
  - { offsetInCU: 0x21DA5, offset: 0x21DA5, size: 0x8, addend: 0x0, symName: __ZNSt3__16vectorIiNS_9allocatorIiEEE18__construct_at_endIPKiS6_EEvT_T0_m, symObjAddr: 0xC5C4, symBinAddr: 0x10000E534, symSize: 0x8C }
  - { offsetInCU: 0x21E1B, offset: 0x21E1B, size: 0x8, addend: 0x0, symName: __ZNKSt16initializer_listIiE5beginB8ue170006Ev, symObjAddr: 0xC650, symBinAddr: 0x10000E5C0, symSize: 0x18 }
  - { offsetInCU: 0x21E41, offset: 0x21E41, size: 0x8, addend: 0x0, symName: __ZNKSt16initializer_listIiE3endB8ue170006Ev, symObjAddr: 0xC668, symBinAddr: 0x10000E5D8, symSize: 0x20 }
  - { offsetInCU: 0x21E67, offset: 0x21E67, size: 0x8, addend: 0x0, symName: __ZNSt3__128__exception_guard_exceptionsINS_6vectorIiNS_9allocatorIiEEE16__destroy_vectorEE10__completeB8ue170006Ev, symObjAddr: 0xC688, symBinAddr: 0x10000E5F8, symSize: 0x1C }
  - { offsetInCU: 0x21E8D, offset: 0x21E8D, size: 0x8, addend: 0x0, symName: __ZNSt3__128__exception_guard_exceptionsINS_6vectorIiNS_9allocatorIiEEE16__destroy_vectorEED1B8ue170006Ev, symObjAddr: 0xC6A4, symBinAddr: 0x10000E614, symSize: 0x2C }
  - { offsetInCU: 0x21EB7, offset: 0x21EB7, size: 0x8, addend: 0x0, symName: __ZNSt3__117__compressed_pairIPiNS_9allocatorIiEEEC2B8ue170006IDnNS_18__default_init_tagEEEOT_OT0_, symObjAddr: 0xC6D0, symBinAddr: 0x10000E640, symSize: 0x40 }
  - { offsetInCU: 0x21F0F, offset: 0x21F0F, size: 0x8, addend: 0x0, symName: __ZNSt3__122__compressed_pair_elemINS_9allocatorIiEELi1ELb1EEC2B8ue170006ENS_18__default_init_tagE, symObjAddr: 0xC710, symBinAddr: 0x10000E680, symSize: 0x2C }
  - { offsetInCU: 0x21F43, offset: 0x21F43, size: 0x8, addend: 0x0, symName: __ZNSt3__19allocatorIiEC2B8ue170006Ev, symObjAddr: 0xC73C, symBinAddr: 0x10000E6AC, symSize: 0x2C }
  - { offsetInCU: 0x21F6D, offset: 0x21F6D, size: 0x8, addend: 0x0, symName: __ZNSt3__116__non_trivial_ifILb1ENS_9allocatorIiEEEC2B8ue170006Ev, symObjAddr: 0xC768, symBinAddr: 0x10000E6D8, symSize: 0x14 }
  - { offsetInCU: 0x21F97, offset: 0x21F97, size: 0x8, addend: 0x0, symName: __ZNSt3__128__exception_guard_exceptionsINS_6vectorIiNS_9allocatorIiEEE16__destroy_vectorEEC1B8ue170006ES5_, symObjAddr: 0xC77C, symBinAddr: 0x10000E6EC, symSize: 0x34 }
  - { offsetInCU: 0x21FCF, offset: 0x21FCF, size: 0x8, addend: 0x0, symName: __ZNSt3__128__exception_guard_exceptionsINS_6vectorIiNS_9allocatorIiEEE16__destroy_vectorEEC2B8ue170006ES5_, symObjAddr: 0xC7B0, symBinAddr: 0x10000E720, symSize: 0x24 }
  - { offsetInCU: 0x22007, offset: 0x22007, size: 0x8, addend: 0x0, symName: __ZNSt3__16vectorIiNS_9allocatorIiEEE16__destroy_vectorC2B8ue170006ERS3_, symObjAddr: 0xC7D4, symBinAddr: 0x10000E744, symSize: 0x20 }
  - { offsetInCU: 0x22040, offset: 0x22040, size: 0x8, addend: 0x0, symName: __ZNKSt3__16vectorIiNS_9allocatorIiEEE8max_sizeEv, symObjAddr: 0xC7F4, symBinAddr: 0x10000E764, symSize: 0x60 }
  - { offsetInCU: 0x22068, offset: 0x22068, size: 0x8, addend: 0x0, symName: __ZNKSt3__16vectorIiNS_9allocatorIiEEE20__throw_length_errorB8ue170006Ev, symObjAddr: 0xC854, symBinAddr: 0x10000E7C4, symSize: 0x1C }
  - { offsetInCU: 0x2208E, offset: 0x2208E, size: 0x8, addend: 0x0, symName: __ZNKSt3__16vectorIiNS_9allocatorIiEEE14__annotate_newB8ue170006Em, symObjAddr: 0xC8B0, symBinAddr: 0x10000E820, symSize: 0xAC }
  - { offsetInCU: 0x220CE, offset: 0x220CE, size: 0x8, addend: 0x0, symName: __ZNSt3__116allocator_traitsINS_9allocatorIiEEE8max_sizeB8ue170006IS2_vEEmRKS2_, symObjAddr: 0xC95C, symBinAddr: 0x10000E8CC, symSize: 0x24 }
  - { offsetInCU: 0x220FC, offset: 0x220FC, size: 0x8, addend: 0x0, symName: __ZNKSt3__16vectorIiNS_9allocatorIiEEE7__allocB8ue170006Ev, symObjAddr: 0xC980, symBinAddr: 0x10000E8F0, symSize: 0x28 }
  - { offsetInCU: 0x22122, offset: 0x22122, size: 0x8, addend: 0x0, symName: __ZNKSt3__19allocatorIiE8max_sizeB8ue170006Ev, symObjAddr: 0xC9A8, symBinAddr: 0x10000E918, symSize: 0x14 }
  - { offsetInCU: 0x22148, offset: 0x22148, size: 0x8, addend: 0x0, symName: __ZNKSt3__117__compressed_pairIPiNS_9allocatorIiEEE6secondB8ue170006Ev, symObjAddr: 0xC9BC, symBinAddr: 0x10000E92C, symSize: 0x24 }
  - { offsetInCU: 0x2216E, offset: 0x2216E, size: 0x8, addend: 0x0, symName: __ZNKSt3__122__compressed_pair_elemINS_9allocatorIiEELi1ELb1EE5__getB8ue170006Ev, symObjAddr: 0xC9E0, symBinAddr: 0x10000E950, symSize: 0x14 }
  - { offsetInCU: 0x22194, offset: 0x22194, size: 0x8, addend: 0x0, symName: __ZNSt3__19allocatorIiE8allocateB8ue170006Em, symObjAddr: 0xC9F4, symBinAddr: 0x10000E964, symSize: 0x58 }
  - { offsetInCU: 0x221E3, offset: 0x221E3, size: 0x8, addend: 0x0, symName: __ZNSt3__16vectorIiNS_9allocatorIiEEE21_ConstructTransactionC1B8ue170006ERS3_m, symObjAddr: 0xCA4C, symBinAddr: 0x10000E9BC, symSize: 0x3C }
  - { offsetInCU: 0x2222B, offset: 0x2222B, size: 0x8, addend: 0x0, symName: __ZNSt3__16vectorIiNS_9allocatorIiEEE21_ConstructTransactionD1B8ue170006Ev, symObjAddr: 0xCB08, symBinAddr: 0x10000EA78, symSize: 0x2C }
  - { offsetInCU: 0x22255, offset: 0x22255, size: 0x8, addend: 0x0, symName: __ZNSt3__16vectorIiNS_9allocatorIiEEE21_ConstructTransactionC2B8ue170006ERS3_m, symObjAddr: 0xCB34, symBinAddr: 0x10000EAA4, symSize: 0x44 }
  - { offsetInCU: 0x222BF, offset: 0x222BF, size: 0x8, addend: 0x0, symName: __ZNSt3__14pairIPKiS2_EC1B8ue170006IS2_S2_LPv0EEEOT_OT0_, symObjAddr: 0xCCCC, symBinAddr: 0x10000EC3C, symSize: 0x3C }
  - { offsetInCU: 0x2231D, offset: 0x2231D, size: 0x8, addend: 0x0, symName: __ZNSt3__14pairIPKiS2_EC2B8ue170006IS2_S2_LPv0EEEOT_OT0_, symObjAddr: 0xCD08, symBinAddr: 0x10000EC78, symSize: 0x34 }
  - { offsetInCU: 0x2237B, offset: 0x2237B, size: 0x8, addend: 0x0, symName: __ZNSt3__118__unwrap_iter_implIPKiLb1EE8__unwrapB8ue170006ES2_, symObjAddr: 0xCD3C, symBinAddr: 0x10000ECAC, symSize: 0x24 }
  - { offsetInCU: 0x223BA, offset: 0x223BA, size: 0x8, addend: 0x0, symName: __ZNKSt3__114__copy_trivialclB8ue170006IKiiLi0EEENS_4pairIPT_PT0_EES5_S5_S7_, symObjAddr: 0xCEF0, symBinAddr: 0x10000EE60, symSize: 0x48 }
  - { offsetInCU: 0x2242E, offset: 0x2242E, size: 0x8, addend: 0x0, symName: __ZNSt3__14pairIPKiPiEC1B8ue170006IRS2_S3_LPv0EEEOT_OT0_, symObjAddr: 0xD0B8, symBinAddr: 0x10000F028, symSize: 0x3C }
  - { offsetInCU: 0x2248C, offset: 0x2248C, size: 0x8, addend: 0x0, symName: __ZNSt3__14pairIPKiPiEC2B8ue170006IRS2_S3_LPv0EEEOT_OT0_, symObjAddr: 0xD0F4, symBinAddr: 0x10000F064, symSize: 0x34 }
  - { offsetInCU: 0x224EA, offset: 0x224EA, size: 0x8, addend: 0x0, symName: __ZNSt3__14pairIPKiPiEC1B8ue170006IS2_S3_LPv0EEEOT_OT0_, symObjAddr: 0xD128, symBinAddr: 0x10000F098, symSize: 0x3C }
  - { offsetInCU: 0x22548, offset: 0x22548, size: 0x8, addend: 0x0, symName: __ZNSt3__14pairIPKiPiEC2B8ue170006IS2_S3_LPv0EEEOT_OT0_, symObjAddr: 0xD164, symBinAddr: 0x10000F0D4, symSize: 0x34 }
  - { offsetInCU: 0x225A6, offset: 0x225A6, size: 0x8, addend: 0x0, symName: __ZNSt3__118__unwrap_iter_implIPKiLb1EE8__rewrapB8ue170006ES2_S2_, symObjAddr: 0xD1D4, symBinAddr: 0x10000F144, symSize: 0x50 }
  - { offsetInCU: 0x225D7, offset: 0x225D7, size: 0x8, addend: 0x0, symName: __ZNSt3__118__unwrap_iter_implIPiLb1EE8__unwrapB8ue170006ES1_, symObjAddr: 0xD224, symBinAddr: 0x10000F194, symSize: 0x24 }
  - { offsetInCU: 0x225FA, offset: 0x225FA, size: 0x8, addend: 0x0, symName: __ZNSt3__118__unwrap_iter_implIPiLb1EE8__rewrapB8ue170006ES1_S1_, symObjAddr: 0xD248, symBinAddr: 0x10000F1B8, symSize: 0x50 }
  - { offsetInCU: 0x2262B, offset: 0x2262B, size: 0x8, addend: 0x0, symName: __ZNSt3__16vectorIiNS_9allocatorIiEEE21_ConstructTransactionD2B8ue170006Ev, symObjAddr: 0xD298, symBinAddr: 0x10000F208, symSize: 0x20 }
  - { offsetInCU: 0x22655, offset: 0x22655, size: 0x8, addend: 0x0, symName: __ZNSt3__128__exception_guard_exceptionsINS_6vectorIiNS_9allocatorIiEEE16__destroy_vectorEED2B8ue170006Ev, symObjAddr: 0xD2B8, symBinAddr: 0x10000F228, symSize: 0x50 }
  - { offsetInCU: 0x2267F, offset: 0x2267F, size: 0x8, addend: 0x0, symName: __ZNSt3__16vectorIiNS_9allocatorIiEEE16__destroy_vectorclB8ue170006Ev, symObjAddr: 0xD308, symBinAddr: 0x10000F278, symSize: 0x90 }
  - { offsetInCU: 0x226A5, offset: 0x226A5, size: 0x8, addend: 0x0, symName: __ZNSt3__16vectorIiNS_9allocatorIiEEED2B8ue170006Ev, symObjAddr: 0xD398, symBinAddr: 0x10000F308, symSize: 0x40 }
  - { offsetInCU: 0x226CF, offset: 0x226CF, size: 0x8, addend: 0x0, symName: __ZNSt3__16vectorINS0_IiNS_9allocatorIiEEEENS1_IS3_EEE9__end_capB8ue170006Ev, symObjAddr: 0xD3D8, symBinAddr: 0x10000F348, symSize: 0x28 }
  - { offsetInCU: 0x226F5, offset: 0x226F5, size: 0x8, addend: 0x0, symName: __ZNSt3__16vectorINS0_IiNS_9allocatorIiEEEENS1_IS3_EEE22__construct_one_at_endB8ue170006IJRKS3_EEEvDpOT_, symObjAddr: 0xD400, symBinAddr: 0x10000F370, symSize: 0x90 }
  - { offsetInCU: 0x22744, offset: 0x22744, size: 0x8, addend: 0x0, symName: __ZNSt3__16vectorINS0_IiNS_9allocatorIiEEEENS1_IS3_EEE21__push_back_slow_pathIRKS3_EEvOT_, symObjAddr: 0xD490, symBinAddr: 0x10000F400, symSize: 0xD8 }
  - { offsetInCU: 0x227A2, offset: 0x227A2, size: 0x8, addend: 0x0, symName: __ZNSt3__117__compressed_pairIPNS_6vectorIiNS_9allocatorIiEEEENS2_IS4_EEE5firstB8ue170006Ev, symObjAddr: 0xD568, symBinAddr: 0x10000F4D8, symSize: 0x24 }
  - { offsetInCU: 0x227C8, offset: 0x227C8, size: 0x8, addend: 0x0, symName: __ZNSt3__122__compressed_pair_elemIPNS_6vectorIiNS_9allocatorIiEEEELi0ELb0EE5__getB8ue170006Ev, symObjAddr: 0xD58C, symBinAddr: 0x10000F4FC, symSize: 0x14 }
  - { offsetInCU: 0x22809, offset: 0x22809, size: 0x8, addend: 0x0, symName: __ZNSt3__16vectorINS0_IiNS_9allocatorIiEEEENS1_IS3_EEE21_ConstructTransactionC1B8ue170006ERS5_m, symObjAddr: 0xD5A0, symBinAddr: 0x10000F510, symSize: 0x3C }
  - { offsetInCU: 0x22851, offset: 0x22851, size: 0x8, addend: 0x0, symName: __ZNSt3__116allocator_traitsINS_9allocatorINS_6vectorIiNS1_IiEEEEEEE9constructB8ue170006IS4_JRKS4_EvEEvRS5_PT_DpOT0_, symObjAddr: 0xD5DC, symBinAddr: 0x10000F54C, symSize: 0x34 }
  - { offsetInCU: 0x228A8, offset: 0x228A8, size: 0x8, addend: 0x0, symName: __ZNSt3__16vectorINS0_IiNS_9allocatorIiEEEENS1_IS3_EEE7__allocB8ue170006Ev, symObjAddr: 0xD610, symBinAddr: 0x10000F580, symSize: 0x28 }
  - { offsetInCU: 0x228CE, offset: 0x228CE, size: 0x8, addend: 0x0, symName: __ZNSt3__16vectorINS0_IiNS_9allocatorIiEEEENS1_IS3_EEE21_ConstructTransactionD1B8ue170006Ev, symObjAddr: 0xD638, symBinAddr: 0x10000F5A8, symSize: 0x2C }
  - { offsetInCU: 0x228F8, offset: 0x228F8, size: 0x8, addend: 0x0, symName: __ZNSt3__16vectorINS0_IiNS_9allocatorIiEEEENS1_IS3_EEE21_ConstructTransactionC2B8ue170006ERS5_m, symObjAddr: 0xD664, symBinAddr: 0x10000F5D4, symSize: 0x4C }
  - { offsetInCU: 0x22940, offset: 0x22940, size: 0x8, addend: 0x0, symName: __ZNSt3__19allocatorINS_6vectorIiNS0_IiEEEEE9constructB8ue170006IS3_JRKS3_EEEvPT_DpOT0_, symObjAddr: 0xD6B0, symBinAddr: 0x10000F620, symSize: 0x30 }
  - { offsetInCU: 0x22996, offset: 0x22996, size: 0x8, addend: 0x0, symName: __ZNSt3__117__compressed_pairIPNS_6vectorIiNS_9allocatorIiEEEENS2_IS4_EEE6secondB8ue170006Ev, symObjAddr: 0xD6E0, symBinAddr: 0x10000F650, symSize: 0x24 }
  - { offsetInCU: 0x229BC, offset: 0x229BC, size: 0x8, addend: 0x0, symName: __ZNSt3__122__compressed_pair_elemINS_9allocatorINS_6vectorIiNS1_IiEEEEEELi1ELb1EE5__getB8ue170006Ev, symObjAddr: 0xD704, symBinAddr: 0x10000F674, symSize: 0x14 }
  - { offsetInCU: 0x229E2, offset: 0x229E2, size: 0x8, addend: 0x0, symName: __ZNSt3__16vectorINS0_IiNS_9allocatorIiEEEENS1_IS3_EEE21_ConstructTransactionD2B8ue170006Ev, symObjAddr: 0xD718, symBinAddr: 0x10000F688, symSize: 0x20 }
  - { offsetInCU: 0x22A0C, offset: 0x22A0C, size: 0x8, addend: 0x0, symName: __ZNKSt3__16vectorINS0_IiNS_9allocatorIiEEEENS1_IS3_EEE11__recommendB8ue170006Em, symObjAddr: 0xD738, symBinAddr: 0x10000F6A8, symSize: 0xB4 }
  - { offsetInCU: 0x22A61, offset: 0x22A61, size: 0x8, addend: 0x0, symName: __ZNKSt3__16vectorINS0_IiNS_9allocatorIiEEEENS1_IS3_EEE4sizeB8ue170006Ev, symObjAddr: 0xD7EC, symBinAddr: 0x10000F75C, symSize: 0x28 }
  - { offsetInCU: 0x22A87, offset: 0x22A87, size: 0x8, addend: 0x0, symName: __ZNSt3__114__split_bufferINS_6vectorIiNS_9allocatorIiEEEERNS2_IS4_EEEC1EmmS6_, symObjAddr: 0xD814, symBinAddr: 0x10000F784, symSize: 0x44 }
  - { offsetInCU: 0x22ADD, offset: 0x22ADD, size: 0x8, addend: 0x0, symName: __ZNSt3__114__split_bufferINS_6vectorIiNS_9allocatorIiEEEERNS2_IS4_EEED1Ev, symObjAddr: 0xD968, symBinAddr: 0x10000F8D8, symSize: 0x2C }
  - { offsetInCU: 0x22B09, offset: 0x22B09, size: 0x8, addend: 0x0, symName: __ZNKSt3__16vectorINS0_IiNS_9allocatorIiEEEENS1_IS3_EEE8max_sizeEv, symObjAddr: 0xD994, symBinAddr: 0x10000F904, symSize: 0x60 }
  - { offsetInCU: 0x22B31, offset: 0x22B31, size: 0x8, addend: 0x0, symName: __ZNKSt3__16vectorINS0_IiNS_9allocatorIiEEEENS1_IS3_EEE20__throw_length_errorB8ue170006Ev, symObjAddr: 0xD9F4, symBinAddr: 0x10000F964, symSize: 0x1C }
  - { offsetInCU: 0x22B57, offset: 0x22B57, size: 0x8, addend: 0x0, symName: __ZNKSt3__16vectorINS0_IiNS_9allocatorIiEEEENS1_IS3_EEE8capacityB8ue170006Ev, symObjAddr: 0xDA10, symBinAddr: 0x10000F980, symSize: 0x40 }
  - { offsetInCU: 0x22B88, offset: 0x22B88, size: 0x8, addend: 0x0, symName: __ZNSt3__116allocator_traitsINS_9allocatorINS_6vectorIiNS1_IiEEEEEEE8max_sizeB8ue170006IS5_vEEmRKS5_, symObjAddr: 0xDA50, symBinAddr: 0x10000F9C0, symSize: 0x24 }
  - { offsetInCU: 0x22BB6, offset: 0x22BB6, size: 0x8, addend: 0x0, symName: __ZNKSt3__16vectorINS0_IiNS_9allocatorIiEEEENS1_IS3_EEE7__allocB8ue170006Ev, symObjAddr: 0xDA74, symBinAddr: 0x10000F9E4, symSize: 0x28 }
  - { offsetInCU: 0x22BDC, offset: 0x22BDC, size: 0x8, addend: 0x0, symName: __ZNKSt3__19allocatorINS_6vectorIiNS0_IiEEEEE8max_sizeB8ue170006Ev, symObjAddr: 0xDA9C, symBinAddr: 0x10000FA0C, symSize: 0x18 }
  - { offsetInCU: 0x22C02, offset: 0x22C02, size: 0x8, addend: 0x0, symName: __ZNKSt3__117__compressed_pairIPNS_6vectorIiNS_9allocatorIiEEEENS2_IS4_EEE6secondB8ue170006Ev, symObjAddr: 0xDAB4, symBinAddr: 0x10000FA24, symSize: 0x24 }
  - { offsetInCU: 0x22C28, offset: 0x22C28, size: 0x8, addend: 0x0, symName: __ZNKSt3__122__compressed_pair_elemINS_9allocatorINS_6vectorIiNS1_IiEEEEEELi1ELb1EE5__getB8ue170006Ev, symObjAddr: 0xDAD8, symBinAddr: 0x10000FA48, symSize: 0x14 }
  - { offsetInCU: 0x22C4E, offset: 0x22C4E, size: 0x8, addend: 0x0, symName: __ZNKSt3__16vectorINS0_IiNS_9allocatorIiEEEENS1_IS3_EEE9__end_capB8ue170006Ev, symObjAddr: 0xDAEC, symBinAddr: 0x10000FA5C, symSize: 0x28 }
  - { offsetInCU: 0x22C74, offset: 0x22C74, size: 0x8, addend: 0x0, symName: __ZNKSt3__117__compressed_pairIPNS_6vectorIiNS_9allocatorIiEEEENS2_IS4_EEE5firstB8ue170006Ev, symObjAddr: 0xDB14, symBinAddr: 0x10000FA84, symSize: 0x24 }
  - { offsetInCU: 0x22C9A, offset: 0x22C9A, size: 0x8, addend: 0x0, symName: __ZNKSt3__122__compressed_pair_elemIPNS_6vectorIiNS_9allocatorIiEEEELi0ELb0EE5__getB8ue170006Ev, symObjAddr: 0xDB38, symBinAddr: 0x10000FAA8, symSize: 0x14 }
  - { offsetInCU: 0x22CC0, offset: 0x22CC0, size: 0x8, addend: 0x0, symName: __ZNSt3__114__split_bufferINS_6vectorIiNS_9allocatorIiEEEERNS2_IS4_EEEC2EmmS6_, symObjAddr: 0xDB4C, symBinAddr: 0x10000FABC, symSize: 0xE0 }
  - { offsetInCU: 0x22D33, offset: 0x22D33, size: 0x8, addend: 0x0, symName: __ZNSt3__117__compressed_pairIPNS_6vectorIiNS_9allocatorIiEEEERNS2_IS4_EEEC1B8ue170006IDnS7_EEOT_OT0_, symObjAddr: 0xDC2C, symBinAddr: 0x10000FB9C, symSize: 0x3C }
  - { offsetInCU: 0x22D8B, offset: 0x22D8B, size: 0x8, addend: 0x0, symName: __ZNSt3__114__split_bufferINS_6vectorIiNS_9allocatorIiEEEERNS2_IS4_EEE7__allocB8ue170006Ev, symObjAddr: 0xDCA8, symBinAddr: 0x10000FC18, symSize: 0x28 }
  - { offsetInCU: 0x22DB1, offset: 0x22DB1, size: 0x8, addend: 0x0, symName: __ZNSt3__114__split_bufferINS_6vectorIiNS_9allocatorIiEEEERNS2_IS4_EEE9__end_capB8ue170006Ev, symObjAddr: 0xDCD0, symBinAddr: 0x10000FC40, symSize: 0x28 }
  - { offsetInCU: 0x22DD7, offset: 0x22DD7, size: 0x8, addend: 0x0, symName: __ZNSt3__117__compressed_pairIPNS_6vectorIiNS_9allocatorIiEEEERNS2_IS4_EEEC2B8ue170006IDnS7_EEOT_OT0_, symObjAddr: 0xDCF8, symBinAddr: 0x10000FC68, symSize: 0x48 }
  - { offsetInCU: 0x22E2F, offset: 0x22E2F, size: 0x8, addend: 0x0, symName: __ZNSt3__122__compressed_pair_elemIPNS_6vectorIiNS_9allocatorIiEEEELi0ELb0EEC2B8ue170006IDnvEEOT_, symObjAddr: 0xDD40, symBinAddr: 0x10000FCB0, symSize: 0x1C }
  - { offsetInCU: 0x22E71, offset: 0x22E71, size: 0x8, addend: 0x0, symName: __ZNSt3__122__compressed_pair_elemIRNS_9allocatorINS_6vectorIiNS1_IiEEEEEELi1ELb0EEC2B8ue170006IS6_vEEOT_, symObjAddr: 0xDD5C, symBinAddr: 0x10000FCCC, symSize: 0x20 }
  - { offsetInCU: 0x22EB3, offset: 0x22EB3, size: 0x8, addend: 0x0, symName: __ZNSt3__19allocatorINS_6vectorIiNS0_IiEEEEE8allocateB8ue170006Em, symObjAddr: 0xDD7C, symBinAddr: 0x10000FCEC, symSize: 0x5C }
  - { offsetInCU: 0x22EE7, offset: 0x22EE7, size: 0x8, addend: 0x0, symName: __ZNSt3__117__compressed_pairIPNS_6vectorIiNS_9allocatorIiEEEERNS2_IS4_EEE6secondB8ue170006Ev, symObjAddr: 0xDDD8, symBinAddr: 0x10000FD48, symSize: 0x28 }
  - { offsetInCU: 0x22F0D, offset: 0x22F0D, size: 0x8, addend: 0x0, symName: __ZNSt3__122__compressed_pair_elemIRNS_9allocatorINS_6vectorIiNS1_IiEEEEEELi1ELb0EE5__getB8ue170006Ev, symObjAddr: 0xDE00, symBinAddr: 0x10000FD70, symSize: 0x18 }
  - { offsetInCU: 0x22F33, offset: 0x22F33, size: 0x8, addend: 0x0, symName: __ZNSt3__117__compressed_pairIPNS_6vectorIiNS_9allocatorIiEEEERNS2_IS4_EEE5firstB8ue170006Ev, symObjAddr: 0xDE18, symBinAddr: 0x10000FD88, symSize: 0x24 }
  - { offsetInCU: 0x22F59, offset: 0x22F59, size: 0x8, addend: 0x0, symName: __ZNKSt3__16vectorINS0_IiNS_9allocatorIiEEEENS1_IS3_EEE17__annotate_deleteB8ue170006Ev, symObjAddr: 0xDE3C, symBinAddr: 0x10000FDAC, symSize: 0xD4 }
  - { offsetInCU: 0x22F7F, offset: 0x22F7F, size: 0x8, addend: 0x0, symName: __ZNSt3__116reverse_iteratorIPNS_6vectorIiNS_9allocatorIiEEEEEC1B8ue170006ES5_, symObjAddr: 0xE03C, symBinAddr: 0x10000FFAC, symSize: 0x34 }
  - { offsetInCU: 0x22FB7, offset: 0x22FB7, size: 0x8, addend: 0x0, symName: __ZNKSt3__116reverse_iteratorIPNS_6vectorIiNS_9allocatorIiEEEEE4baseB8ue170006Ev, symObjAddr: 0xE070, symBinAddr: 0x10000FFE0, symSize: 0x18 }
  - { offsetInCU: 0x22FDD, offset: 0x22FDD, size: 0x8, addend: 0x0, symName: __ZNKSt3__16vectorINS0_IiNS_9allocatorIiEEEENS1_IS3_EEE14__annotate_newB8ue170006Em, symObjAddr: 0xE0C4, symBinAddr: 0x100010034, symSize: 0xC8 }
  - { offsetInCU: 0x23012, offset: 0x23012, size: 0x8, addend: 0x0, symName: __ZNKSt3__16vectorINS0_IiNS_9allocatorIiEEEENS1_IS3_EEE31__annotate_contiguous_containerB8ue170006EPKvS7_S7_S7_, symObjAddr: 0xE18C, symBinAddr: 0x1000100FC, symSize: 0x20 }
  - { offsetInCU: 0x23064, offset: 0x23064, size: 0x8, addend: 0x0, symName: __ZNKSt3__16vectorINS0_IiNS_9allocatorIiEEEENS1_IS3_EEE4dataB8ue170006Ev, symObjAddr: 0xE1AC, symBinAddr: 0x10001011C, symSize: 0x28 }
  - { offsetInCU: 0x2308A, offset: 0x2308A, size: 0x8, addend: 0x0, symName: __ZNSt3__129_AllocatorDestroyRangeReverseINS_9allocatorINS_6vectorIiNS1_IiEEEEEENS_16reverse_iteratorIPS4_EEEC1B8ue170006ERS5_RS8_SB_, symObjAddr: 0xE220, symBinAddr: 0x100010190, symSize: 0x44 }
  - { offsetInCU: 0x230E1, offset: 0x230E1, size: 0x8, addend: 0x0, symName: __ZNSt3__116allocator_traitsINS_9allocatorINS_6vectorIiNS1_IiEEEEEEE9constructB8ue170006IS4_JS4_EvEEvRS5_PT_DpOT0_, symObjAddr: 0xE2AC, symBinAddr: 0x10001021C, symSize: 0x34 }
  - { offsetInCU: 0x23138, offset: 0x23138, size: 0x8, addend: 0x0, symName: __ZNKSt3__116reverse_iteratorIPNS_6vectorIiNS_9allocatorIiEEEEEdeB8ue170006Ev, symObjAddr: 0xE304, symBinAddr: 0x100010274, symSize: 0x28 }
  - { offsetInCU: 0x2316C, offset: 0x2316C, size: 0x8, addend: 0x0, symName: __ZNSt3__116reverse_iteratorIPNS_6vectorIiNS_9allocatorIiEEEEEppB8ue170006Ev, symObjAddr: 0xE32C, symBinAddr: 0x10001029C, symSize: 0x20 }
  - { offsetInCU: 0x23192, offset: 0x23192, size: 0x8, addend: 0x0, symName: __ZNSt3__128__exception_guard_exceptionsINS_29_AllocatorDestroyRangeReverseINS_9allocatorINS_6vectorIiNS2_IiEEEEEENS_16reverse_iteratorIPS5_EEEEE10__completeB8ue170006Ev, symObjAddr: 0xE34C, symBinAddr: 0x1000102BC, symSize: 0x1C }
  - { offsetInCU: 0x231B8, offset: 0x231B8, size: 0x8, addend: 0x0, symName: __ZNSt3__128__exception_guard_exceptionsINS_29_AllocatorDestroyRangeReverseINS_9allocatorINS_6vectorIiNS2_IiEEEEEENS_16reverse_iteratorIPS5_EEEEED1B8ue170006Ev, symObjAddr: 0xE368, symBinAddr: 0x1000102D8, symSize: 0x2C }
  - { offsetInCU: 0x231E2, offset: 0x231E2, size: 0x8, addend: 0x0, symName: __ZNSt3__128__exception_guard_exceptionsINS_29_AllocatorDestroyRangeReverseINS_9allocatorINS_6vectorIiNS2_IiEEEEEENS_16reverse_iteratorIPS5_EEEEEC1B8ue170006ESA_, symObjAddr: 0xE394, symBinAddr: 0x100010304, symSize: 0x34 }
  - { offsetInCU: 0x2321B, offset: 0x2321B, size: 0x8, addend: 0x0, symName: __ZNSt3__128__exception_guard_exceptionsINS_29_AllocatorDestroyRangeReverseINS_9allocatorINS_6vectorIiNS2_IiEEEEEENS_16reverse_iteratorIPS5_EEEEEC2B8ue170006ESA_, symObjAddr: 0xE3C8, symBinAddr: 0x100010338, symSize: 0x30 }
  - { offsetInCU: 0x23254, offset: 0x23254, size: 0x8, addend: 0x0, symName: __ZNSt3__129_AllocatorDestroyRangeReverseINS_9allocatorINS_6vectorIiNS1_IiEEEEEENS_16reverse_iteratorIPS4_EEEC2B8ue170006ERS5_RS8_SB_, symObjAddr: 0xE3F8, symBinAddr: 0x100010368, symSize: 0x38 }
  - { offsetInCU: 0x232AB, offset: 0x232AB, size: 0x8, addend: 0x0, symName: __ZNSt3__19allocatorINS_6vectorIiNS0_IiEEEEE9constructB8ue170006IS3_JS3_EEEvPT_DpOT0_, symObjAddr: 0xE430, symBinAddr: 0x1000103A0, symSize: 0x30 }
  - { offsetInCU: 0x23307, offset: 0x23307, size: 0x8, addend: 0x0, symName: __ZNSt3__119__to_address_helperINS_16reverse_iteratorIPNS_6vectorIiNS_9allocatorIiEEEEEEvE6__callB8ue170006ERKS7_, symObjAddr: 0xE460, symBinAddr: 0x1000103D0, symSize: 0x38 }
  - { offsetInCU: 0x2332A, offset: 0x2332A, size: 0x8, addend: 0x0, symName: __ZNKSt3__116reverse_iteratorIPNS_6vectorIiNS_9allocatorIiEEEEEptB8ue170006Ev, symObjAddr: 0xE498, symBinAddr: 0x100010408, symSize: 0x24 }
  - { offsetInCU: 0x23350, offset: 0x23350, size: 0x8, addend: 0x0, symName: __ZNSt3__128__exception_guard_exceptionsINS_29_AllocatorDestroyRangeReverseINS_9allocatorINS_6vectorIiNS2_IiEEEEEENS_16reverse_iteratorIPS5_EEEEED2B8ue170006Ev, symObjAddr: 0xE4BC, symBinAddr: 0x10001042C, symSize: 0x50 }
  - { offsetInCU: 0x2337A, offset: 0x2337A, size: 0x8, addend: 0x0, symName: __ZNKSt3__129_AllocatorDestroyRangeReverseINS_9allocatorINS_6vectorIiNS1_IiEEEEEENS_16reverse_iteratorIPS4_EEEclB8ue170006Ev, symObjAddr: 0xE50C, symBinAddr: 0x10001047C, symSize: 0xB4 }
  - { offsetInCU: 0x233A1, offset: 0x233A1, size: 0x8, addend: 0x0, symName: __ZNSt3__116reverse_iteratorINS0_IPNS_6vectorIiNS_9allocatorIiEEEEEEEC1B8ue170006ES6_, symObjAddr: 0xE630, symBinAddr: 0x1000105A0, symSize: 0x3C }
  - { offsetInCU: 0x233D9, offset: 0x233D9, size: 0x8, addend: 0x0, symName: __ZNSt3__116allocator_traitsINS_9allocatorINS_6vectorIiNS1_IiEEEEEEE7destroyB8ue170006IS4_vEEvRS5_PT_, symObjAddr: 0xE6CC, symBinAddr: 0x10001063C, symSize: 0x2C }
  - { offsetInCU: 0x23416, offset: 0x23416, size: 0x8, addend: 0x0, symName: __ZNSt3__116reverse_iteratorINS0_IPNS_6vectorIiNS_9allocatorIiEEEEEEEppB8ue170006Ev, symObjAddr: 0xE71C, symBinAddr: 0x10001068C, symSize: 0x30 }
  - { offsetInCU: 0x2343C, offset: 0x2343C, size: 0x8, addend: 0x0, symName: __ZNKSt3__116reverse_iteratorINS0_IPNS_6vectorIiNS_9allocatorIiEEEEEEE4baseB8ue170006Ev, symObjAddr: 0xE74C, symBinAddr: 0x1000106BC, symSize: 0x24 }
  - { offsetInCU: 0x23462, offset: 0x23462, size: 0x8, addend: 0x0, symName: __ZNSt3__19allocatorINS_6vectorIiNS0_IiEEEEE7destroyB8ue170006EPS3_, symObjAddr: 0xE770, symBinAddr: 0x1000106E0, symSize: 0x28 }
  - { offsetInCU: 0x2349C, offset: 0x2349C, size: 0x8, addend: 0x0, symName: __ZNSt3__119__to_address_helperINS_16reverse_iteratorINS1_IPNS_6vectorIiNS_9allocatorIiEEEEEEEEvE6__callB8ue170006ERKS8_, symObjAddr: 0xE798, symBinAddr: 0x100010708, symSize: 0x38 }
  - { offsetInCU: 0x234BF, offset: 0x234BF, size: 0x8, addend: 0x0, symName: __ZNKSt3__116reverse_iteratorINS0_IPNS_6vectorIiNS_9allocatorIiEEEEEEEptB8ue170006Ev, symObjAddr: 0xE7D0, symBinAddr: 0x100010740, symSize: 0x24 }
  - { offsetInCU: 0x234E5, offset: 0x234E5, size: 0x8, addend: 0x0, symName: __ZNKSt3__116reverse_iteratorINS0_IPNS_6vectorIiNS_9allocatorIiEEEEEEEdeB8ue170006Ev, symObjAddr: 0xE7F4, symBinAddr: 0x100010764, symSize: 0x34 }
  - { offsetInCU: 0x23519, offset: 0x23519, size: 0x8, addend: 0x0, symName: __ZNSt3__116reverse_iteratorIPNS_6vectorIiNS_9allocatorIiEEEEEmmB8ue170006Ev, symObjAddr: 0xE828, symBinAddr: 0x100010798, symSize: 0x20 }
  - { offsetInCU: 0x2353F, offset: 0x2353F, size: 0x8, addend: 0x0, symName: __ZNSt3__116reverse_iteratorINS0_IPNS_6vectorIiNS_9allocatorIiEEEEEEEC2B8ue170006ES6_, symObjAddr: 0xE848, symBinAddr: 0x1000107B8, symSize: 0x2C }
  - { offsetInCU: 0x23577, offset: 0x23577, size: 0x8, addend: 0x0, symName: __ZNSt3__116reverse_iteratorIPNS_6vectorIiNS_9allocatorIiEEEEEC2B8ue170006ES5_, symObjAddr: 0xE874, symBinAddr: 0x1000107E4, symSize: 0x28 }
  - { offsetInCU: 0x235AF, offset: 0x235AF, size: 0x8, addend: 0x0, symName: __ZNSt3__114__split_bufferINS_6vectorIiNS_9allocatorIiEEEERNS2_IS4_EEED2Ev, symObjAddr: 0xE89C, symBinAddr: 0x10001080C, symSize: 0x8C }
  - { offsetInCU: 0x235DB, offset: 0x235DB, size: 0x8, addend: 0x0, symName: __ZNSt3__114__split_bufferINS_6vectorIiNS_9allocatorIiEEEERNS2_IS4_EEE5clearB8ue170006Ev, symObjAddr: 0xE928, symBinAddr: 0x100010898, symSize: 0x28 }
  - { offsetInCU: 0x23601, offset: 0x23601, size: 0x8, addend: 0x0, symName: __ZNSt3__116allocator_traitsINS_9allocatorINS_6vectorIiNS1_IiEEEEEEE10deallocateB8ue170006ERS5_PS4_m, symObjAddr: 0xE950, symBinAddr: 0x1000108C0, symSize: 0x34 }
  - { offsetInCU: 0x23643, offset: 0x23643, size: 0x8, addend: 0x0, symName: __ZNKSt3__114__split_bufferINS_6vectorIiNS_9allocatorIiEEEERNS2_IS4_EEE8capacityB8ue170006Ev, symObjAddr: 0xE984, symBinAddr: 0x1000108F4, symSize: 0x40 }
  - { offsetInCU: 0x23669, offset: 0x23669, size: 0x8, addend: 0x0, symName: __ZNSt3__114__split_bufferINS_6vectorIiNS_9allocatorIiEEEERNS2_IS4_EEE17__destruct_at_endB8ue170006EPS4_, symObjAddr: 0xE9C4, symBinAddr: 0x100010934, symSize: 0x2C }
  - { offsetInCU: 0x2369D, offset: 0x2369D, size: 0x8, addend: 0x0, symName: __ZNSt3__114__split_bufferINS_6vectorIiNS_9allocatorIiEEEERNS2_IS4_EEE17__destruct_at_endB8ue170006EPS4_NS_17integral_constantIbLb0EEE, symObjAddr: 0xE9F0, symBinAddr: 0x100010960, symSize: 0x80 }
  - { offsetInCU: 0x236DD, offset: 0x236DD, size: 0x8, addend: 0x0, symName: __ZNSt3__19allocatorINS_6vectorIiNS0_IiEEEEE10deallocateB8ue170006EPS3_m, symObjAddr: 0xEA70, symBinAddr: 0x1000109E0, symSize: 0x44 }
  - { offsetInCU: 0x2371F, offset: 0x2371F, size: 0x8, addend: 0x0, symName: __ZNKSt3__114__split_bufferINS_6vectorIiNS_9allocatorIiEEEERNS2_IS4_EEE9__end_capB8ue170006Ev, symObjAddr: 0xEAB4, symBinAddr: 0x100010A24, symSize: 0x28 }
  - { offsetInCU: 0x23745, offset: 0x23745, size: 0x8, addend: 0x0, symName: __ZNKSt3__117__compressed_pairIPNS_6vectorIiNS_9allocatorIiEEEERNS2_IS4_EEE5firstB8ue170006Ev, symObjAddr: 0xEADC, symBinAddr: 0x100010A4C, symSize: 0x24 }
  - { offsetInCU: 0x2376B, offset: 0x2376B, size: 0x8, addend: 0x0, symName: __ZNSt3__16vectorINS0_IiNS_9allocatorIiEEEENS1_IS3_EEEC2B8ue170006Ev, symObjAddr: 0xEB00, symBinAddr: 0x100010A70, symSize: 0x4C }
  - { offsetInCU: 0x23795, offset: 0x23795, size: 0x8, addend: 0x0, symName: __ZNSt3__117__compressed_pairIPNS_6vectorIiNS_9allocatorIiEEEENS2_IS4_EEEC1B8ue170006IDnNS_18__default_init_tagEEEOT_OT0_, symObjAddr: 0xEB4C, symBinAddr: 0x100010ABC, symSize: 0x3C }
  - { offsetInCU: 0x237ED, offset: 0x237ED, size: 0x8, addend: 0x0, symName: __ZNSt3__117__compressed_pairIPNS_6vectorIiNS_9allocatorIiEEEENS2_IS4_EEEC2B8ue170006IDnNS_18__default_init_tagEEEOT_OT0_, symObjAddr: 0xEB88, symBinAddr: 0x100010AF8, symSize: 0x40 }
  - { offsetInCU: 0x23845, offset: 0x23845, size: 0x8, addend: 0x0, symName: __ZNSt3__122__compressed_pair_elemINS_9allocatorINS_6vectorIiNS1_IiEEEEEELi1ELb1EEC2B8ue170006ENS_18__default_init_tagE, symObjAddr: 0xEBC8, symBinAddr: 0x100010B38, symSize: 0x2C }
  - { offsetInCU: 0x23879, offset: 0x23879, size: 0x8, addend: 0x0, symName: __ZNSt3__19allocatorINS_6vectorIiNS0_IiEEEEEC2B8ue170006Ev, symObjAddr: 0xEBF4, symBinAddr: 0x100010B64, symSize: 0x2C }
  - { offsetInCU: 0x238A3, offset: 0x238A3, size: 0x8, addend: 0x0, symName: __ZNSt3__116__non_trivial_ifILb1ENS_9allocatorINS_6vectorIiNS1_IiEEEEEEEC2B8ue170006Ev, symObjAddr: 0xEC20, symBinAddr: 0x100010B90, symSize: 0x14 }
  - { offsetInCU: 0x238CD, offset: 0x238CD, size: 0x8, addend: 0x0, symName: __ZNSt3__16vectorINS0_IiNS_9allocatorIiEEEENS1_IS3_EEED2B8ue170006Ev, symObjAddr: 0xEC34, symBinAddr: 0x100010BA4, symSize: 0x44 }
  - { offsetInCU: 0x238F7, offset: 0x238F7, size: 0x8, addend: 0x0, symName: __ZNSt3__16vectorINS0_IiNS_9allocatorIiEEEENS1_IS3_EEE16__destroy_vectorC1B8ue170006ERS5_, symObjAddr: 0xEC78, symBinAddr: 0x100010BE8, symSize: 0x34 }
  - { offsetInCU: 0x23930, offset: 0x23930, size: 0x8, addend: 0x0, symName: __ZNSt3__16vectorINS0_IiNS_9allocatorIiEEEENS1_IS3_EEE16__destroy_vectorclB8ue170006Ev, symObjAddr: 0xECAC, symBinAddr: 0x100010C1C, symSize: 0x90 }
  - { offsetInCU: 0x23956, offset: 0x23956, size: 0x8, addend: 0x0, symName: __ZNSt3__16vectorINS0_IiNS_9allocatorIiEEEENS1_IS3_EEE16__destroy_vectorC2B8ue170006ERS5_, symObjAddr: 0xED3C, symBinAddr: 0x100010CAC, symSize: 0x20 }
  - { offsetInCU: 0x2398F, offset: 0x2398F, size: 0x8, addend: 0x0, symName: __ZNSt3__16vectorINS0_IiNS_9allocatorIiEEEENS1_IS3_EEE7__clearB8ue170006Ev, symObjAddr: 0xED5C, symBinAddr: 0x100010CCC, symSize: 0x28 }
  - { offsetInCU: 0x239B5, offset: 0x239B5, size: 0x8, addend: 0x0, symName: __ZNSt3__16vectorINS0_IiNS_9allocatorIiEEEENS1_IS3_EEE22__base_destruct_at_endB8ue170006EPS3_, symObjAddr: 0xED84, symBinAddr: 0x100010CF4, symSize: 0x8C }
  - { offsetInCU: 0x239F9, offset: 0x239F9, size: 0x8, addend: 0x0, symName: __ZNSt3__16vectorIiNS_9allocatorIiEEEC2ERKS3_, symObjAddr: 0xEE10, symBinAddr: 0x100010D80, symSize: 0x94 }
  - { offsetInCU: 0x23A34, offset: 0x23A34, size: 0x8, addend: 0x0, symName: __ZNSt3__116allocator_traitsINS_9allocatorIiEEE37select_on_container_copy_constructionB8ue170006IS2_vvEES2_RKS2_, symObjAddr: 0xEEA4, symBinAddr: 0x100010E14, symSize: 0x10 }
  - { offsetInCU: 0x23A63, offset: 0x23A63, size: 0x8, addend: 0x0, symName: __ZNSt3__16vectorIiNS_9allocatorIiEEE16__init_with_sizeB8ue170006IPiS5_EEvT_T0_m, symObjAddr: 0xEEB4, symBinAddr: 0x100010E24, symSize: 0xB8 }
  - { offsetInCU: 0x23AD7, offset: 0x23AD7, size: 0x8, addend: 0x0, symName: __ZNSt3__16vectorIiNS_9allocatorIiEEE18__construct_at_endIPiS5_EEvT_T0_m, symObjAddr: 0xEF6C, symBinAddr: 0x100010EDC, symSize: 0x8C }
  - { offsetInCU: 0x23B69, offset: 0x23B69, size: 0x8, addend: 0x0, symName: __ZNSt3__14pairIPiS1_EC1B8ue170006IS1_S1_LPv0EEEOT_OT0_, symObjAddr: 0xF148, symBinAddr: 0x1000110B8, symSize: 0x3C }
  - { offsetInCU: 0x23BC7, offset: 0x23BC7, size: 0x8, addend: 0x0, symName: __ZNSt3__14pairIPiS1_EC2B8ue170006IS1_S1_LPv0EEEOT_OT0_, symObjAddr: 0xF184, symBinAddr: 0x1000110F4, symSize: 0x34 }
  - { offsetInCU: 0x23C25, offset: 0x23C25, size: 0x8, addend: 0x0, symName: __ZNKSt3__114__copy_trivialclB8ue170006IiiLi0EEENS_4pairIPT_PT0_EES4_S4_S6_, symObjAddr: 0xF334, symBinAddr: 0x1000112A4, symSize: 0x48 }
  - { offsetInCU: 0x23C8D, offset: 0x23C8D, size: 0x8, addend: 0x0, symName: __ZNSt3__14pairIPiS1_EC1B8ue170006IRS1_S1_LPv0EEEOT_OT0_, symObjAddr: 0xF4C4, symBinAddr: 0x100011434, symSize: 0x3C }
  - { offsetInCU: 0x23CEB, offset: 0x23CEB, size: 0x8, addend: 0x0, symName: __ZNSt3__14pairIPiS1_EC2B8ue170006IRS1_S1_LPv0EEEOT_OT0_, symObjAddr: 0xF500, symBinAddr: 0x100011470, symSize: 0x34 }
  - { offsetInCU: 0x23D49, offset: 0x23D49, size: 0x8, addend: 0x0, symName: __ZNSt3__16vectorINS0_IiNS_9allocatorIiEEEENS1_IS3_EEE17__destruct_at_endB8ue170006EPS3_, symObjAddr: 0xF534, symBinAddr: 0x1000114A4, symSize: 0x4C }
  - { offsetInCU: 0x23D8D, offset: 0x23D8D, size: 0x8, addend: 0x0, symName: __ZNKSt3__16vectorINS0_IiNS_9allocatorIiEEEENS1_IS3_EEE17__annotate_shrinkB8ue170006Em, symObjAddr: 0xF580, symBinAddr: 0x1000114F0, symSize: 0xD0 }
  - { offsetInCU: 0x23DC2, offset: 0x23DC2, size: 0x8, addend: 0x0, symName: __ZNSt3__111char_traitsIcE6lengthB8ue170006EPKc, symObjAddr: 0xF83C, symBinAddr: 0x1000117AC, symSize: 0x34 }
  - { offsetInCU: 0x23E06, offset: 0x23E06, size: 0x8, addend: 0x0, symName: __ZNKSt3__113basic_ostreamIcNS_11char_traitsIcEEE6sentrycvbB8ue170006Ev, symObjAddr: 0xF870, symBinAddr: 0x1000117E0, symSize: 0x1C }
  - { offsetInCU: 0x23E2C, offset: 0x23E2C, size: 0x8, addend: 0x0, symName: __ZNSt3__119ostreambuf_iteratorIcNS_11char_traitsIcEEEC1B8ue170006ERNS_13basic_ostreamIcS2_EE, symObjAddr: 0xFACC, symBinAddr: 0x100011A3C, symSize: 0x34 }
  - { offsetInCU: 0x23E64, offset: 0x23E64, size: 0x8, addend: 0x0, symName: __ZNKSt3__18ios_base5flagsB8ue170006Ev, symObjAddr: 0xFB00, symBinAddr: 0x100011A70, symSize: 0x18 }
  - { offsetInCU: 0x23E8C, offset: 0x23E8C, size: 0x8, addend: 0x0, symName: __ZNKSt3__19basic_iosIcNS_11char_traitsIcEEE4fillB8ue170006Ev, symObjAddr: 0xFB18, symBinAddr: 0x100011A88, symSize: 0x64 }
  - { offsetInCU: 0x23EB4, offset: 0x23EB4, size: 0x8, addend: 0x0, symName: __ZNKSt3__119ostreambuf_iteratorIcNS_11char_traitsIcEEE6failedB8ue170006Ev, symObjAddr: 0xFB7C, symBinAddr: 0x100011AEC, symSize: 0x24 }
  - { offsetInCU: 0x23EDA, offset: 0x23EDA, size: 0x8, addend: 0x0, symName: __ZNKSt3__18ios_base5widthB8ue170006Ev, symObjAddr: 0xFBA0, symBinAddr: 0x100011B10, symSize: 0x18 }
  - { offsetInCU: 0x23F02, offset: 0x23F02, size: 0x8, addend: 0x0, symName: __ZNSt3__115basic_streambufIcNS_11char_traitsIcEEE5sputnB8ue170006EPKcl, symObjAddr: 0xFBB8, symBinAddr: 0x100011B28, symSize: 0x3C }
  - { offsetInCU: 0x23F44, offset: 0x23F44, size: 0x8, addend: 0x0, symName: __ZNSt3__112basic_stringIcNS_11char_traitsIcEENS_9allocatorIcEEEC1B8ue170006Emc, symObjAddr: 0xFBF4, symBinAddr: 0x100011B64, symSize: 0x3C }
  - { offsetInCU: 0x23F8C, offset: 0x23F8C, size: 0x8, addend: 0x0, symName: __ZNSt3__112basic_stringIcNS_11char_traitsIcEENS_9allocatorIcEEE4dataB8ue170006Ev, symObjAddr: 0xFC30, symBinAddr: 0x100011BA0, symSize: 0x28 }
  - { offsetInCU: 0x23FB2, offset: 0x23FB2, size: 0x8, addend: 0x0, symName: __ZNSt3__18ios_base5widthB8ue170006El, symObjAddr: 0xFC58, symBinAddr: 0x100011BC8, symSize: 0x2C }
  - { offsetInCU: 0x23FF8, offset: 0x23FF8, size: 0x8, addend: 0x0, symName: __ZNSt3__112basic_stringIcNS_11char_traitsIcEENS_9allocatorIcEEEC2B8ue170006Emc, symObjAddr: 0xFC84, symBinAddr: 0x100011BF4, symSize: 0x4C }
  - { offsetInCU: 0x24040, offset: 0x24040, size: 0x8, addend: 0x0, symName: __ZNSt3__112basic_stringIcNS_11char_traitsIcEENS_9allocatorIcEEE13__get_pointerB8ue170006Ev, symObjAddr: 0xFCE4, symBinAddr: 0x100011C54, symSize: 0x54 }
  - { offsetInCU: 0x24066, offset: 0x24066, size: 0x8, addend: 0x0, symName: __ZNSt3__119ostreambuf_iteratorIcNS_11char_traitsIcEEEC2B8ue170006ERNS_13basic_ostreamIcS2_EE, symObjAddr: 0xFD38, symBinAddr: 0x100011CA8, symSize: 0x54 }
  - { offsetInCU: 0x2409E, offset: 0x2409E, size: 0x8, addend: 0x0, symName: __ZNSt3__112basic_stringIcNS_11char_traitsIcEENS_9allocatorIcEEEC2B8ue170006ILi0EEEPKc, symObjAddr: 0xFDB0, symBinAddr: 0x100011D20, symSize: 0x58 }
  - { offsetInCU: 0x240DD, offset: 0x240DD, size: 0x8, addend: 0x0, symName: __ZNSt3__16vectorINS0_I5StateNS_9allocatorIS1_EEEENS2_IS4_EEEC2ERKS6_, symObjAddr: 0xFE08, symBinAddr: 0x100011D78, symSize: 0x94 }
  - { offsetInCU: 0x24118, offset: 0x24118, size: 0x8, addend: 0x0, symName: __ZNSt3__116allocator_traitsINS_9allocatorINS_6vectorI5StateNS1_IS3_EEEEEEE37select_on_container_copy_constructionB8ue170006IS6_vvEES6_RKS6_, symObjAddr: 0xFE9C, symBinAddr: 0x100011E0C, symSize: 0x10 }
  - { offsetInCU: 0x24147, offset: 0x24147, size: 0x8, addend: 0x0, symName: __ZNSt3__16vectorINS0_I5StateNS_9allocatorIS1_EEEENS2_IS4_EEE16__init_with_sizeB8ue170006IPS4_S8_EEvT_T0_m, symObjAddr: 0xFEAC, symBinAddr: 0x100011E1C, symSize: 0xB8 }
  - { offsetInCU: 0x241BB, offset: 0x241BB, size: 0x8, addend: 0x0, symName: __ZNSt3__16vectorINS0_I5StateNS_9allocatorIS1_EEEENS2_IS4_EEE11__vallocateB8ue170006Em, symObjAddr: 0xFFA4, symBinAddr: 0x100011F14, symSize: 0xB4 }
  - { offsetInCU: 0x241FF, offset: 0x241FF, size: 0x8, addend: 0x0, symName: __ZNSt3__16vectorINS0_I5StateNS_9allocatorIS1_EEEENS2_IS4_EEE18__construct_at_endIPS4_S8_EEvT_T0_m, symObjAddr: 0x10058, symBinAddr: 0x100011FC8, symSize: 0x8C }
  - { offsetInCU: 0x24275, offset: 0x24275, size: 0x8, addend: 0x0, symName: __ZNSt3__128__exception_guard_exceptionsINS_6vectorINS1_I5StateNS_9allocatorIS2_EEEENS3_IS5_EEE16__destroy_vectorEE10__completeB8ue170006Ev, symObjAddr: 0x100E4, symBinAddr: 0x100012054, symSize: 0x1C }
  - { offsetInCU: 0x2429B, offset: 0x2429B, size: 0x8, addend: 0x0, symName: __ZNSt3__128__exception_guard_exceptionsINS_6vectorINS1_I5StateNS_9allocatorIS2_EEEENS3_IS5_EEE16__destroy_vectorEED1B8ue170006Ev, symObjAddr: 0x10100, symBinAddr: 0x100012070, symSize: 0x2C }
  - { offsetInCU: 0x242C5, offset: 0x242C5, size: 0x8, addend: 0x0, symName: __ZNSt3__128__exception_guard_exceptionsINS_6vectorINS1_I5StateNS_9allocatorIS2_EEEENS3_IS5_EEE16__destroy_vectorEEC1B8ue170006ES8_, symObjAddr: 0x1012C, symBinAddr: 0x10001209C, symSize: 0x34 }
  - { offsetInCU: 0x242FD, offset: 0x242FD, size: 0x8, addend: 0x0, symName: __ZNSt3__128__exception_guard_exceptionsINS_6vectorINS1_I5StateNS_9allocatorIS2_EEEENS3_IS5_EEE16__destroy_vectorEEC2B8ue170006ES8_, symObjAddr: 0x10160, symBinAddr: 0x1000120D0, symSize: 0x24 }
  - { offsetInCU: 0x24357, offset: 0x24357, size: 0x8, addend: 0x0, symName: __ZNSt3__14pairIPNS_6vectorI5StateNS_9allocatorIS2_EEEES6_EC1B8ue170006IS6_S6_LPv0EEEOT_OT0_, symObjAddr: 0x103F0, symBinAddr: 0x100012360, symSize: 0x3C }
  - { offsetInCU: 0x243B5, offset: 0x243B5, size: 0x8, addend: 0x0, symName: __ZNSt3__14pairIPNS_6vectorI5StateNS_9allocatorIS2_EEEES6_EC2B8ue170006IS6_S6_LPv0EEEOT_OT0_, symObjAddr: 0x1042C, symBinAddr: 0x10001239C, symSize: 0x34 }
  - { offsetInCU: 0x24413, offset: 0x24413, size: 0x8, addend: 0x0, symName: __ZNSt3__129_AllocatorDestroyRangeReverseINS_9allocatorINS_6vectorI5StateNS1_IS3_EEEEEEPS5_EC1B8ue170006ERS6_RS7_SA_, symObjAddr: 0x104AC, symBinAddr: 0x10001241C, symSize: 0x44 }
  - { offsetInCU: 0x2446A, offset: 0x2446A, size: 0x8, addend: 0x0, symName: __ZNSt3__116allocator_traitsINS_9allocatorINS_6vectorI5StateNS1_IS3_EEEEEEE9constructB8ue170006IS5_JRS5_EvEEvRS6_PT_DpOT0_, symObjAddr: 0x104F0, symBinAddr: 0x100012460, symSize: 0x34 }
  - { offsetInCU: 0x244C1, offset: 0x244C1, size: 0x8, addend: 0x0, symName: __ZNSt3__128__exception_guard_exceptionsINS_29_AllocatorDestroyRangeReverseINS_9allocatorINS_6vectorI5StateNS2_IS4_EEEEEEPS6_EEE10__completeB8ue170006Ev, symObjAddr: 0x10524, symBinAddr: 0x100012494, symSize: 0x1C }
  - { offsetInCU: 0x244E7, offset: 0x244E7, size: 0x8, addend: 0x0, symName: __ZNSt3__128__exception_guard_exceptionsINS_29_AllocatorDestroyRangeReverseINS_9allocatorINS_6vectorI5StateNS2_IS4_EEEEEEPS6_EEED1B8ue170006Ev, symObjAddr: 0x10540, symBinAddr: 0x1000124B0, symSize: 0x2C }
  - { offsetInCU: 0x24511, offset: 0x24511, size: 0x8, addend: 0x0, symName: __ZNSt3__128__exception_guard_exceptionsINS_29_AllocatorDestroyRangeReverseINS_9allocatorINS_6vectorI5StateNS2_IS4_EEEEEEPS6_EEEC1B8ue170006ES9_, symObjAddr: 0x1056C, symBinAddr: 0x1000124DC, symSize: 0x34 }
  - { offsetInCU: 0x2454A, offset: 0x2454A, size: 0x8, addend: 0x0, symName: __ZNSt3__128__exception_guard_exceptionsINS_29_AllocatorDestroyRangeReverseINS_9allocatorINS_6vectorI5StateNS2_IS4_EEEEEEPS6_EEEC2B8ue170006ES9_, symObjAddr: 0x105A0, symBinAddr: 0x100012510, symSize: 0x30 }
  - { offsetInCU: 0x24583, offset: 0x24583, size: 0x8, addend: 0x0, symName: __ZNSt3__129_AllocatorDestroyRangeReverseINS_9allocatorINS_6vectorI5StateNS1_IS3_EEEEEEPS5_EC2B8ue170006ERS6_RS7_SA_, symObjAddr: 0x105D0, symBinAddr: 0x100012540, symSize: 0x38 }
  - { offsetInCU: 0x245DA, offset: 0x245DA, size: 0x8, addend: 0x0, symName: __ZNSt3__19allocatorINS_6vectorI5StateNS0_IS2_EEEEE9constructB8ue170006IS4_JRS4_EEEvPT_DpOT0_, symObjAddr: 0x10608, symBinAddr: 0x100012578, symSize: 0x30 }
  - { offsetInCU: 0x24630, offset: 0x24630, size: 0x8, addend: 0x0, symName: __ZNSt3__128__exception_guard_exceptionsINS_29_AllocatorDestroyRangeReverseINS_9allocatorINS_6vectorI5StateNS2_IS4_EEEEEEPS6_EEED2B8ue170006Ev, symObjAddr: 0x10638, symBinAddr: 0x1000125A8, symSize: 0x50 }
  - { offsetInCU: 0x2465A, offset: 0x2465A, size: 0x8, addend: 0x0, symName: __ZNKSt3__129_AllocatorDestroyRangeReverseINS_9allocatorINS_6vectorI5StateNS1_IS3_EEEEEEPS5_EclB8ue170006Ev, symObjAddr: 0x10688, symBinAddr: 0x1000125F8, symSize: 0x68 }
  - { offsetInCU: 0x24680, offset: 0x24680, size: 0x8, addend: 0x0, symName: __ZNSt3__118__unwrap_iter_implIPNS_6vectorI5StateNS_9allocatorIS2_EEEELb1EE8__unwrapB8ue170006ES6_, symObjAddr: 0x10760, symBinAddr: 0x1000126D0, symSize: 0x24 }
  - { offsetInCU: 0x246A3, offset: 0x246A3, size: 0x8, addend: 0x0, symName: __ZNSt3__118__unwrap_iter_implIPNS_6vectorI5StateNS_9allocatorIS2_EEEELb1EE8__rewrapB8ue170006ES6_S6_, symObjAddr: 0x10784, symBinAddr: 0x1000126F4, symSize: 0x58 }
  - { offsetInCU: 0x246D4, offset: 0x246D4, size: 0x8, addend: 0x0, symName: __ZNSt3__128__exception_guard_exceptionsINS_6vectorINS1_I5StateNS_9allocatorIS2_EEEENS3_IS5_EEE16__destroy_vectorEED2B8ue170006Ev, symObjAddr: 0x107DC, symBinAddr: 0x10001274C, symSize: 0x48 }
...
